
code.elf:     file format elf32-littleriscv


Disassembly of section .text:

00000000 <reset_vec>:
       0:	0040006f          	j	4 <start>

00000004 <start>:
       4:	00004137          	lui	sp,0x4
       8:	00002517          	auipc	a0,0x2
       c:	3ac50513          	addi	a0,a0,940 # 23b4 <a.0>
      10:	00002597          	auipc	a1,0x2
      14:	3a358593          	addi	a1,a1,931 # 23b3 <_etext>
      18:	00002617          	auipc	a2,0x2
      1c:	3a060613          	addi	a2,a2,928 # 23b8 <udat0>
      20:	00c55c63          	bge	a0,a2,38 <end_init_data>

00000024 <loop_init_data>:
      24:	0005a683          	lw	a3,0(a1)
      28:	00d52023          	sw	a3,0(a0)
      2c:	00450513          	addi	a0,a0,4
      30:	00458593          	addi	a1,a1,4
      34:	fec548e3          	blt	a0,a2,24 <loop_init_data>

00000038 <end_init_data>:
      38:	00002517          	auipc	a0,0x2
      3c:	38050513          	addi	a0,a0,896 # 23b8 <udat0>
      40:	00002597          	auipc	a1,0x2
      44:	5f058593          	addi	a1,a1,1520 # 2630 <_ebss>
      48:	00b55863          	bge	a0,a1,58 <end_init_bss>

0000004c <loop_init_bss>:
      4c:	00052023          	sw	zero,0(a0)
      50:	00450513          	addi	a0,a0,4
      54:	feb54ce3          	blt	a0,a1,4c <loop_init_bss>

00000058 <end_init_bss>:
      58:	139010ef          	jal	ra,1990 <main>

0000005c <loop>:
      5c:	0000006f          	j	5c <loop>

00000060 <delay_loop>:
      60:	fff50513          	addi	a0,a0,-1
      64:	fe051ee3          	bnez	a0,60 <delay_loop>
      68:	00008067          	ret

0000006c <irq1_handler>:
      6c:	ff010113          	addi	sp,sp,-16 # 3ff0 <_ebss+0x19c0>
      70:	00e12223          	sw	a4,4(sp)
      74:	00002737          	lui	a4,0x2
      78:	00d12423          	sw	a3,8(sp)
      7c:	62c74683          	lbu	a3,1580(a4) # 262c <wrix0>
      80:	00f12023          	sw	a5,0(sp)
      84:	00c12623          	sw	a2,12(sp)
      88:	00168793          	addi	a5,a3,1
      8c:	0ff7f793          	zext.b	a5,a5
      90:	62f70623          	sb	a5,1580(a4)
      94:	e00007b7          	lui	a5,0xe0000
      98:	0007c603          	lbu	a2,0(a5) # e0000000 <_ebss+0xdfffd9d0>
      9c:	000027b7          	lui	a5,0x2
      a0:	3b878793          	addi	a5,a5,952 # 23b8 <udat0>
      a4:	00d787b3          	add	a5,a5,a3
      a8:	00c78023          	sb	a2,0(a5)
      ac:	62c74783          	lbu	a5,1580(a4)
      b0:	00c12603          	lw	a2,12(sp)
      b4:	00812683          	lw	a3,8(sp)
      b8:	01f7f793          	andi	a5,a5,31
      bc:	62f70623          	sb	a5,1580(a4)
      c0:	00412703          	lw	a4,4(sp)
      c4:	00012783          	lw	a5,0(sp)
      c8:	01010113          	addi	sp,sp,16
      cc:	30200073          	mret

000000d0 <irq2_handler>:
      d0:	ff410113          	addi	sp,sp,-12
      d4:	00e12223          	sw	a4,4(sp)
      d8:	00002737          	lui	a4,0x2
      dc:	00f12023          	sw	a5,0(sp)
      e0:	3b574783          	lbu	a5,949(a4) # 23b5 <a.1>
      e4:	00d12423          	sw	a3,8(sp)
      e8:	e00006b7          	lui	a3,0xe0000
      ec:	00f68023          	sb	a5,0(a3) # e0000000 <_ebss+0xdfffd9d0>
      f0:	00178793          	addi	a5,a5,1
      f4:	0ff7f693          	zext.b	a3,a5
      f8:	01879793          	slli	a5,a5,0x18
      fc:	4187d793          	srai	a5,a5,0x18
     100:	0007d463          	bgez	a5,108 <irq2_handler+0x38>
     104:	02000693          	li	a3,32
     108:	3ad70aa3          	sb	a3,949(a4)
     10c:	00012783          	lw	a5,0(sp)
     110:	00812683          	lw	a3,8(sp)
     114:	00412703          	lw	a4,4(sp)
     118:	00c10113          	addi	sp,sp,12
     11c:	30200073          	mret

00000120 <irq3_handler>:
     120:	fec10113          	addi	sp,sp,-20
     124:	00c12823          	sw	a2,16(sp)
     128:	00d12623          	sw	a3,12(sp)
     12c:	00e12423          	sw	a4,8(sp)
     130:	e00006b7          	lui	a3,0xe0000
     134:	00f12223          	sw	a5,4(sp)
     138:	0806c783          	lbu	a5,128(a3) # e0000080 <_ebss+0xdfffda50>
     13c:	00002737          	lui	a4,0x2
     140:	62974603          	lbu	a2,1577(a4) # 2629 <binaryCount>
     144:	0f07f793          	andi	a5,a5,240
     148:	00c787b3          	add	a5,a5,a2
     14c:	0ff7f793          	zext.b	a5,a5
     150:	08f68023          	sb	a5,128(a3)
     154:	62974783          	lbu	a5,1577(a4)
     158:	01000693          	li	a3,16
     15c:	00178793          	addi	a5,a5,1
     160:	0ff7f793          	zext.b	a5,a5
     164:	00d79463          	bne	a5,a3,16c <irq3_handler+0x4c>
     168:	00000793          	li	a5,0
     16c:	62f704a3          	sb	a5,1577(a4)
     170:	e00007b7          	lui	a5,0xe0000
     174:	0607a783          	lw	a5,96(a5) # e0000060 <_ebss+0xdfffda30>
     178:	01012603          	lw	a2,16(sp)
     17c:	00c12683          	lw	a3,12(sp)
     180:	00f12023          	sw	a5,0(sp)
     184:	00812703          	lw	a4,8(sp)
     188:	00412783          	lw	a5,4(sp)
     18c:	01410113          	addi	sp,sp,20
     190:	30200073          	mret

00000194 <irq4_handler>:
     194:	ff010113          	addi	sp,sp,-16
     198:	00f12023          	sw	a5,0(sp)
     19c:	00c12623          	sw	a2,12(sp)
     1a0:	e00007b7          	lui	a5,0xe0000
     1a4:	00d12423          	sw	a3,8(sp)
     1a8:	00e12223          	sw	a4,4(sp)
     1ac:	0087c703          	lbu	a4,8(a5) # e0000008 <_ebss+0xdfffd9d8>
     1b0:	00d00793          	li	a5,13
     1b4:	00f71863          	bne	a4,a5,1c4 <irq4_handler+0x30>
     1b8:	000027b7          	lui	a5,0x2
     1bc:	03100713          	li	a4,49
     1c0:	3ae78b23          	sb	a4,950(a5) # 23b6 <GPS_FF>
     1c4:	00002737          	lui	a4,0x2
     1c8:	62a74683          	lbu	a3,1578(a4) # 262a <wrix1>
     1cc:	00168793          	addi	a5,a3,1
     1d0:	0ff7f793          	zext.b	a5,a5
     1d4:	62f70523          	sb	a5,1578(a4)
     1d8:	e00007b7          	lui	a5,0xe0000
     1dc:	0087c603          	lbu	a2,8(a5) # e0000008 <_ebss+0xdfffd9d8>
     1e0:	000027b7          	lui	a5,0x2
     1e4:	3b878793          	addi	a5,a5,952 # 23b8 <udat0>
     1e8:	00d787b3          	add	a5,a5,a3
     1ec:	02c78023          	sb	a2,32(a5)
     1f0:	62a74783          	lbu	a5,1578(a4)
     1f4:	00c12603          	lw	a2,12(sp)
     1f8:	00812683          	lw	a3,8(sp)
     1fc:	07f7f793          	andi	a5,a5,127
     200:	62f70523          	sb	a5,1578(a4)
     204:	00412703          	lw	a4,4(sp)
     208:	00012783          	lw	a5,0(sp)
     20c:	01010113          	addi	sp,sp,16
     210:	30200073          	mret

00000214 <irq5_handler>:
     214:	ff410113          	addi	sp,sp,-12
     218:	00e12223          	sw	a4,4(sp)
     21c:	00002737          	lui	a4,0x2
     220:	00f12023          	sw	a5,0(sp)
     224:	3b474783          	lbu	a5,948(a4) # 23b4 <a.0>
     228:	00d12423          	sw	a3,8(sp)
     22c:	e00006b7          	lui	a3,0xe0000
     230:	00f68423          	sb	a5,8(a3) # e0000008 <_ebss+0xdfffd9d8>
     234:	00178793          	addi	a5,a5,1
     238:	0ff7f693          	zext.b	a3,a5
     23c:	01879793          	slli	a5,a5,0x18
     240:	4187d793          	srai	a5,a5,0x18
     244:	0007d463          	bgez	a5,24c <irq5_handler+0x38>
     248:	02000693          	li	a3,32
     24c:	3ad70a23          	sb	a3,948(a4)
     250:	00012783          	lw	a5,0(sp)
     254:	00812683          	lw	a3,8(sp)
     258:	00412703          	lw	a4,4(sp)
     25c:	00c10113          	addi	sp,sp,12
     260:	30200073          	mret

00000264 <_putch>:
     264:	e0000737          	lui	a4,0xe0000
     268:	00472783          	lw	a5,4(a4) # e0000004 <_ebss+0xdfffd9d4>
     26c:	0027f793          	andi	a5,a5,2
     270:	fe078ce3          	beqz	a5,268 <_putch+0x4>
     274:	0ff57513          	zext.b	a0,a0
     278:	00a70023          	sb	a0,0(a4)
     27c:	00008067          	ret

00000280 <printchar>:
     280:	00050793          	mv	a5,a0
     284:	00058513          	mv	a0,a1
     288:	00078e63          	beqz	a5,2a4 <printchar+0x24>
     28c:	0007a703          	lw	a4,0(a5)
     290:	00b70023          	sb	a1,0(a4)
     294:	0007a703          	lw	a4,0(a5)
     298:	00170713          	addi	a4,a4,1
     29c:	00e7a023          	sw	a4,0(a5)
     2a0:	00008067          	ret
     2a4:	fc1ff06f          	j	264 <_putch>

000002a8 <prints>:
     2a8:	fe410113          	addi	sp,sp,-28
     2ac:	00912823          	sw	s1,16(sp)
     2b0:	00112c23          	sw	ra,24(sp)
     2b4:	00812a23          	sw	s0,20(sp)
     2b8:	00a12223          	sw	a0,4(sp)
     2bc:	00058493          	mv	s1,a1
     2c0:	02000793          	li	a5,32
     2c4:	02c05c63          	blez	a2,2fc <prints+0x54>
     2c8:	00000793          	li	a5,0
     2cc:	0080006f          	j	2d4 <prints+0x2c>
     2d0:	00178793          	addi	a5,a5,1
     2d4:	00f48733          	add	a4,s1,a5
     2d8:	00074703          	lbu	a4,0(a4)
     2dc:	fe071ae3          	bnez	a4,2d0 <prints+0x28>
     2e0:	02c7da63          	bge	a5,a2,314 <prints+0x6c>
     2e4:	40f60633          	sub	a2,a2,a5
     2e8:	02000713          	li	a4,32
     2ec:	0026f793          	andi	a5,a3,2
     2f0:	00e12023          	sw	a4,0(sp)
     2f4:	00078663          	beqz	a5,300 <prints+0x58>
     2f8:	03000793          	li	a5,48
     2fc:	00f12023          	sw	a5,0(sp)
     300:	0016f693          	andi	a3,a3,1
     304:	00000793          	li	a5,0
     308:	04069063          	bnez	a3,348 <prints+0xa0>
     30c:	00060413          	mv	s0,a2
     310:	0240006f          	j	334 <prints+0x8c>
     314:	00000613          	li	a2,0
     318:	fd1ff06f          	j	2e8 <prints+0x40>
     31c:	00012583          	lw	a1,0(sp)
     320:	00412503          	lw	a0,4(sp)
     324:	00c12423          	sw	a2,8(sp)
     328:	fff40413          	addi	s0,s0,-1
     32c:	f55ff0ef          	jal	ra,280 <printchar>
     330:	00812603          	lw	a2,8(sp)
     334:	fe8044e3          	bgtz	s0,31c <prints+0x74>
     338:	00060793          	mv	a5,a2
     33c:	00065463          	bgez	a2,344 <prints+0x9c>
     340:	00000793          	li	a5,0
     344:	40f60633          	sub	a2,a2,a5
     348:	00078413          	mv	s0,a5
     34c:	0200006f          	j	36c <prints+0xc4>
     350:	00412503          	lw	a0,4(sp)
     354:	00c12623          	sw	a2,12(sp)
     358:	00f12423          	sw	a5,8(sp)
     35c:	f25ff0ef          	jal	ra,280 <printchar>
     360:	00812783          	lw	a5,8(sp)
     364:	00c12603          	lw	a2,12(sp)
     368:	00140413          	addi	s0,s0,1
     36c:	40f406b3          	sub	a3,s0,a5
     370:	00d486b3          	add	a3,s1,a3
     374:	0006c583          	lbu	a1,0(a3)
     378:	fc059ce3          	bnez	a1,350 <prints+0xa8>
     37c:	00060493          	mv	s1,a2
     380:	02904263          	bgtz	s1,3a4 <prints+0xfc>
     384:	00065463          	bgez	a2,38c <prints+0xe4>
     388:	00000613          	li	a2,0
     38c:	01812083          	lw	ra,24(sp)
     390:	00860533          	add	a0,a2,s0
     394:	01412403          	lw	s0,20(sp)
     398:	01012483          	lw	s1,16(sp)
     39c:	01c10113          	addi	sp,sp,28
     3a0:	00008067          	ret
     3a4:	00012583          	lw	a1,0(sp)
     3a8:	00412503          	lw	a0,4(sp)
     3ac:	00c12423          	sw	a2,8(sp)
     3b0:	fff48493          	addi	s1,s1,-1
     3b4:	ecdff0ef          	jal	ra,280 <printchar>
     3b8:	00812603          	lw	a2,8(sp)
     3bc:	fc5ff06f          	j	380 <prints+0xd8>

000003c0 <printi>:
     3c0:	fcc10113          	addi	sp,sp,-52
     3c4:	02812623          	sw	s0,44(sp)
     3c8:	00058313          	mv	t1,a1
     3cc:	02112823          	sw	ra,48(sp)
     3d0:	02912423          	sw	s1,40(sp)
     3d4:	00a12023          	sw	a0,0(sp)
     3d8:	00060593          	mv	a1,a2
     3dc:	00068413          	mv	s0,a3
     3e0:	00070613          	mv	a2,a4
     3e4:	00078693          	mv	a3,a5
     3e8:	02031463          	bnez	t1,410 <printi+0x50>
     3ec:	03000793          	li	a5,48
     3f0:	01c10593          	addi	a1,sp,28
     3f4:	00f11e23          	sh	a5,28(sp)
     3f8:	eb1ff0ef          	jal	ra,2a8 <prints>
     3fc:	03012083          	lw	ra,48(sp)
     400:	02c12403          	lw	s0,44(sp)
     404:	02812483          	lw	s1,40(sp)
     408:	03410113          	addi	sp,sp,52
     40c:	00008067          	ret
     410:	00030793          	mv	a5,t1
     414:	00040a63          	beqz	s0,428 <printi+0x68>
     418:	00a00713          	li	a4,10
     41c:	0ee59263          	bne	a1,a4,500 <printi+0x140>
     420:	0e035063          	bgez	t1,500 <printi+0x140>
     424:	406007b3          	neg	a5,t1
     428:	03412703          	lw	a4,52(sp)
     42c:	020103a3          	sb	zero,39(sp)
     430:	02710313          	addi	t1,sp,39
     434:	fc670713          	addi	a4,a4,-58
     438:	00e12223          	sw	a4,4(sp)
     43c:	00078513          	mv	a0,a5
     440:	00d12c23          	sw	a3,24(sp)
     444:	00c12a23          	sw	a2,20(sp)
     448:	00612823          	sw	t1,16(sp)
     44c:	00b12623          	sw	a1,12(sp)
     450:	00f12423          	sw	a5,8(sp)
     454:	4d8010ef          	jal	ra,192c <__umodsi3>
     458:	00900713          	li	a4,9
     45c:	00812783          	lw	a5,8(sp)
     460:	00c12583          	lw	a1,12(sp)
     464:	01012303          	lw	t1,16(sp)
     468:	01412603          	lw	a2,20(sp)
     46c:	01812683          	lw	a3,24(sp)
     470:	00a77663          	bgeu	a4,a0,47c <printi+0xbc>
     474:	00412703          	lw	a4,4(sp)
     478:	00e50533          	add	a0,a0,a4
     47c:	03050513          	addi	a0,a0,48
     480:	fea30fa3          	sb	a0,-1(t1)
     484:	00078513          	mv	a0,a5
     488:	00d12c23          	sw	a3,24(sp)
     48c:	00c12a23          	sw	a2,20(sp)
     490:	fff30493          	addi	s1,t1,-1
     494:	00612823          	sw	t1,16(sp)
     498:	00b12623          	sw	a1,12(sp)
     49c:	00f12423          	sw	a5,8(sp)
     4a0:	444010ef          	jal	ra,18e4 <__hidden___udivsi3>
     4a4:	00812783          	lw	a5,8(sp)
     4a8:	00c12583          	lw	a1,12(sp)
     4ac:	01012303          	lw	t1,16(sp)
     4b0:	01412603          	lw	a2,20(sp)
     4b4:	01812683          	lw	a3,24(sp)
     4b8:	04b7f863          	bgeu	a5,a1,508 <printi+0x148>
     4bc:	02040863          	beqz	s0,4ec <printi+0x12c>
     4c0:	04060a63          	beqz	a2,514 <printi+0x154>
     4c4:	0026f793          	andi	a5,a3,2
     4c8:	04078663          	beqz	a5,514 <printi+0x154>
     4cc:	00012503          	lw	a0,0(sp)
     4d0:	02d00593          	li	a1,45
     4d4:	00d12423          	sw	a3,8(sp)
     4d8:	00c12223          	sw	a2,4(sp)
     4dc:	da5ff0ef          	jal	ra,280 <printchar>
     4e0:	00412603          	lw	a2,4(sp)
     4e4:	00812683          	lw	a3,8(sp)
     4e8:	fff60613          	addi	a2,a2,-1
     4ec:	00012503          	lw	a0,0(sp)
     4f0:	00048593          	mv	a1,s1
     4f4:	db5ff0ef          	jal	ra,2a8 <prints>
     4f8:	00850533          	add	a0,a0,s0
     4fc:	f01ff06f          	j	3fc <printi+0x3c>
     500:	00000413          	li	s0,0
     504:	f25ff06f          	j	428 <printi+0x68>
     508:	00050793          	mv	a5,a0
     50c:	00048313          	mv	t1,s1
     510:	f2dff06f          	j	43c <printi+0x7c>
     514:	02d00793          	li	a5,45
     518:	fef48fa3          	sb	a5,-1(s1)
     51c:	00000413          	li	s0,0
     520:	ffe30493          	addi	s1,t1,-2
     524:	fc9ff06f          	j	4ec <printi+0x12c>

00000528 <print>:
     528:	fe010113          	addi	sp,sp,-32
     52c:	00812c23          	sw	s0,24(sp)
     530:	00912a23          	sw	s1,20(sp)
     534:	00112e23          	sw	ra,28(sp)
     538:	00a12223          	sw	a0,4(sp)
     53c:	00058313          	mv	t1,a1
     540:	00060413          	mv	s0,a2
     544:	00000493          	li	s1,0
     548:	00034783          	lbu	a5,0(t1)
     54c:	02079663          	bnez	a5,578 <print+0x50>
     550:	00412783          	lw	a5,4(sp)
     554:	00078663          	beqz	a5,560 <print+0x38>
     558:	0007a783          	lw	a5,0(a5)
     55c:	00078023          	sb	zero,0(a5)
     560:	01c12083          	lw	ra,28(sp)
     564:	01812403          	lw	s0,24(sp)
     568:	00048513          	mv	a0,s1
     56c:	01412483          	lw	s1,20(sp)
     570:	02010113          	addi	sp,sp,32
     574:	00008067          	ret
     578:	02500713          	li	a4,37
     57c:	1ae79263          	bne	a5,a4,720 <print+0x1f8>
     580:	00134683          	lbu	a3,1(t1)
     584:	fc0686e3          	beqz	a3,550 <print+0x28>
     588:	00130713          	addi	a4,t1,1
     58c:	18f68863          	beq	a3,a5,71c <print+0x1f4>
     590:	02d00613          	li	a2,45
     594:	00000793          	li	a5,0
     598:	00c69663          	bne	a3,a2,5a4 <print+0x7c>
     59c:	00230713          	addi	a4,t1,2
     5a0:	00100793          	li	a5,1
     5a4:	00070313          	mv	t1,a4
     5a8:	03000713          	li	a4,48
     5ac:	00034683          	lbu	a3,0(t1)
     5b0:	00130613          	addi	a2,t1,1
     5b4:	04e68c63          	beq	a3,a4,60c <print+0xe4>
     5b8:	00000713          	li	a4,0
     5bc:	00900593          	li	a1,9
     5c0:	00034683          	lbu	a3,0(t1)
     5c4:	00130513          	addi	a0,t1,1
     5c8:	fd068613          	addi	a2,a3,-48
     5cc:	0ff67393          	zext.b	t2,a2
     5d0:	0475f463          	bgeu	a1,t2,618 <print+0xf0>
     5d4:	07300613          	li	a2,115
     5d8:	04c69c63          	bne	a3,a2,630 <print+0x108>
     5dc:	00042583          	lw	a1,0(s0)
     5e0:	00440393          	addi	t2,s0,4
     5e4:	00059663          	bnez	a1,5f0 <print+0xc8>
     5e8:	000025b7          	lui	a1,0x2
     5ec:	d0458593          	addi	a1,a1,-764 # 1d04 <main+0x374>
     5f0:	00612623          	sw	t1,12(sp)
     5f4:	00712423          	sw	t2,8(sp)
     5f8:	00078693          	mv	a3,a5
     5fc:	00070613          	mv	a2,a4
     600:	00412503          	lw	a0,4(sp)
     604:	ca5ff0ef          	jal	ra,2a8 <prints>
     608:	0580006f          	j	660 <print+0x138>
     60c:	0027e793          	ori	a5,a5,2
     610:	00060313          	mv	t1,a2
     614:	f99ff06f          	j	5ac <print+0x84>
     618:	00271693          	slli	a3,a4,0x2
     61c:	00e686b3          	add	a3,a3,a4
     620:	00169693          	slli	a3,a3,0x1
     624:	00d60733          	add	a4,a2,a3
     628:	00050313          	mv	t1,a0
     62c:	f95ff06f          	j	5c0 <print+0x98>
     630:	06400613          	li	a2,100
     634:	04c69263          	bne	a3,a2,678 <print+0x150>
     638:	06100693          	li	a3,97
     63c:	00440393          	addi	t2,s0,4
     640:	00042583          	lw	a1,0(s0)
     644:	00612623          	sw	t1,12(sp)
     648:	00d12023          	sw	a3,0(sp)
     64c:	00712423          	sw	t2,8(sp)
     650:	00100693          	li	a3,1
     654:	00a00613          	li	a2,10
     658:	00412503          	lw	a0,4(sp)
     65c:	d65ff0ef          	jal	ra,3c0 <printi>
     660:	00812383          	lw	t2,8(sp)
     664:	00c12303          	lw	t1,12(sp)
     668:	00a484b3          	add	s1,s1,a0
     66c:	00038413          	mv	s0,t2
     670:	00130313          	addi	t1,t1,1
     674:	ed5ff06f          	j	548 <print+0x20>
     678:	07800613          	li	a2,120
     67c:	02c69463          	bne	a3,a2,6a4 <print+0x17c>
     680:	00042583          	lw	a1,0(s0)
     684:	00440393          	addi	t2,s0,4
     688:	00612623          	sw	t1,12(sp)
     68c:	00712423          	sw	t2,8(sp)
     690:	06100693          	li	a3,97
     694:	00d12023          	sw	a3,0(sp)
     698:	01000613          	li	a2,16
     69c:	00000693          	li	a3,0
     6a0:	fb9ff06f          	j	658 <print+0x130>
     6a4:	05800613          	li	a2,88
     6a8:	00c69e63          	bne	a3,a2,6c4 <print+0x19c>
     6ac:	00440393          	addi	t2,s0,4
     6b0:	00042583          	lw	a1,0(s0)
     6b4:	00612623          	sw	t1,12(sp)
     6b8:	00712423          	sw	t2,8(sp)
     6bc:	04100693          	li	a3,65
     6c0:	fd5ff06f          	j	694 <print+0x16c>
     6c4:	07500613          	li	a2,117
     6c8:	02c69263          	bne	a3,a2,6ec <print+0x1c4>
     6cc:	06100693          	li	a3,97
     6d0:	00440393          	addi	t2,s0,4
     6d4:	00042583          	lw	a1,0(s0)
     6d8:	00612623          	sw	t1,12(sp)
     6dc:	00d12023          	sw	a3,0(sp)
     6e0:	00712423          	sw	t2,8(sp)
     6e4:	00000693          	li	a3,0
     6e8:	f6dff06f          	j	654 <print+0x12c>
     6ec:	06300613          	li	a2,99
     6f0:	f8c690e3          	bne	a3,a2,670 <print+0x148>
     6f4:	00042683          	lw	a3,0(s0)
     6f8:	00440393          	addi	t2,s0,4
     6fc:	00612623          	sw	t1,12(sp)
     700:	00d10823          	sb	a3,16(sp)
     704:	00712423          	sw	t2,8(sp)
     708:	000108a3          	sb	zero,17(sp)
     70c:	00078693          	mv	a3,a5
     710:	00070613          	mv	a2,a4
     714:	01010593          	addi	a1,sp,16
     718:	ee9ff06f          	j	600 <print+0xd8>
     71c:	00070313          	mv	t1,a4
     720:	00034583          	lbu	a1,0(t1)
     724:	00412503          	lw	a0,4(sp)
     728:	00612423          	sw	t1,8(sp)
     72c:	00148493          	addi	s1,s1,1
     730:	b51ff0ef          	jal	ra,280 <printchar>
     734:	00812303          	lw	t1,8(sp)
     738:	f39ff06f          	j	670 <print+0x148>

0000073c <_puts>:
     73c:	ff410113          	addi	sp,sp,-12
     740:	00812223          	sw	s0,4(sp)
     744:	00112423          	sw	ra,8(sp)
     748:	00050413          	mv	s0,a0
     74c:	00044503          	lbu	a0,0(s0)
     750:	00051a63          	bnez	a0,764 <_puts+0x28>
     754:	00812083          	lw	ra,8(sp)
     758:	00412403          	lw	s0,4(sp)
     75c:	00c10113          	addi	sp,sp,12
     760:	00008067          	ret
     764:	00140413          	addi	s0,s0,1
     768:	afdff0ef          	jal	ra,264 <_putch>
     76c:	fe1ff06f          	j	74c <_puts+0x10>

00000770 <_printf>:
     770:	fdc10113          	addi	sp,sp,-36
     774:	00b12823          	sw	a1,16(sp)
     778:	00c12a23          	sw	a2,20(sp)
     77c:	00050593          	mv	a1,a0
     780:	01010613          	addi	a2,sp,16
     784:	00000513          	li	a0,0
     788:	00112623          	sw	ra,12(sp)
     78c:	00d12c23          	sw	a3,24(sp)
     790:	00e12e23          	sw	a4,28(sp)
     794:	02f12023          	sw	a5,32(sp)
     798:	00c12023          	sw	a2,0(sp)
     79c:	d8dff0ef          	jal	ra,528 <print>
     7a0:	00c12083          	lw	ra,12(sp)
     7a4:	02410113          	addi	sp,sp,36
     7a8:	00008067          	ret

000007ac <_sprintf>:
     7ac:	fdc10113          	addi	sp,sp,-36
     7b0:	00a12023          	sw	a0,0(sp)
     7b4:	00c12a23          	sw	a2,20(sp)
     7b8:	00010513          	mv	a0,sp
     7bc:	01410613          	addi	a2,sp,20
     7c0:	00112823          	sw	ra,16(sp)
     7c4:	00d12c23          	sw	a3,24(sp)
     7c8:	00e12e23          	sw	a4,28(sp)
     7cc:	02f12023          	sw	a5,32(sp)
     7d0:	00c12223          	sw	a2,4(sp)
     7d4:	d55ff0ef          	jal	ra,528 <print>
     7d8:	01012083          	lw	ra,16(sp)
     7dc:	02410113          	addi	sp,sp,36
     7e0:	00008067          	ret

000007e4 <_getch>:
     7e4:	00002737          	lui	a4,0x2
     7e8:	00002637          	lui	a2,0x2
     7ec:	62d74683          	lbu	a3,1581(a4) # 262d <rdix0>
     7f0:	62c64783          	lbu	a5,1580(a2) # 262c <wrix0>
     7f4:	fef68ce3          	beq	a3,a5,7ec <_getch+0x8>
     7f8:	62d74683          	lbu	a3,1581(a4)
     7fc:	00168793          	addi	a5,a3,1
     800:	0ff7f793          	zext.b	a5,a5
     804:	62f706a3          	sb	a5,1581(a4)
     808:	000027b7          	lui	a5,0x2
     80c:	3b878793          	addi	a5,a5,952 # 23b8 <udat0>
     810:	00d787b3          	add	a5,a5,a3
     814:	62d74683          	lbu	a3,1581(a4)
     818:	0007c503          	lbu	a0,0(a5)
     81c:	01f6f693          	andi	a3,a3,31
     820:	62d706a3          	sb	a3,1581(a4)
     824:	00008067          	ret

00000828 <haschar>:
     828:	000027b7          	lui	a5,0x2
     82c:	62c7c503          	lbu	a0,1580(a5) # 262c <wrix0>
     830:	000027b7          	lui	a5,0x2
     834:	62d7c783          	lbu	a5,1581(a5) # 262d <rdix0>
     838:	40f50533          	sub	a0,a0,a5
     83c:	0ff57513          	zext.b	a0,a0
     840:	00008067          	ret

00000844 <getMEPC>:
     844:	34101573          	.word	0x34101573
     848:	34151073          	.word	0x34151073
     84c:	00008067          	ret

00000850 <irq0_handler>:
     850:	fd810113          	addi	sp,sp,-40
     854:	02112223          	sw	ra,36(sp)
     858:	02512023          	sw	t0,32(sp)
     85c:	00612e23          	sw	t1,28(sp)
     860:	00712c23          	sw	t2,24(sp)
     864:	00b12823          	sw	a1,16(sp)
     868:	00c12623          	sw	a2,12(sp)
     86c:	00d12423          	sw	a3,8(sp)
     870:	00e12223          	sw	a4,4(sp)
     874:	00f12023          	sw	a5,0(sp)
     878:	00a12a23          	sw	a0,20(sp)
     87c:	fc9ff0ef          	jal	ra,844 <getMEPC>
     880:	00050593          	mv	a1,a0
     884:	00002537          	lui	a0,0x2
     888:	d0c50513          	addi	a0,a0,-756 # 1d0c <main+0x37c>
     88c:	ee5ff0ef          	jal	ra,770 <_printf>
     890:	02412083          	lw	ra,36(sp)
     894:	02012283          	lw	t0,32(sp)
     898:	01c12303          	lw	t1,28(sp)
     89c:	01812383          	lw	t2,24(sp)
     8a0:	01412503          	lw	a0,20(sp)
     8a4:	01012583          	lw	a1,16(sp)
     8a8:	00c12603          	lw	a2,12(sp)
     8ac:	00812683          	lw	a3,8(sp)
     8b0:	00412703          	lw	a4,4(sp)
     8b4:	00012783          	lw	a5,0(sp)
     8b8:	02810113          	addi	sp,sp,40
     8bc:	30200073          	mret

000008c0 <_printfBin>:
     8c0:	fe410113          	addi	sp,sp,-28
     8c4:	00157593          	andi	a1,a0,1
     8c8:	00b12423          	sw	a1,8(sp)
     8cc:	40155593          	srai	a1,a0,0x1
     8d0:	0015f593          	andi	a1,a1,1
     8d4:	00b12223          	sw	a1,4(sp)
     8d8:	40255593          	srai	a1,a0,0x2
     8dc:	0015f593          	andi	a1,a1,1
     8e0:	00a12623          	sw	a0,12(sp)
     8e4:	00b12023          	sw	a1,0(sp)
     8e8:	40355793          	srai	a5,a0,0x3
     8ec:	40455713          	srai	a4,a0,0x4
     8f0:	40555693          	srai	a3,a0,0x5
     8f4:	40655613          	srai	a2,a0,0x6
     8f8:	00755593          	srli	a1,a0,0x7
     8fc:	00002537          	lui	a0,0x2
     900:	0017f793          	andi	a5,a5,1
     904:	00177713          	andi	a4,a4,1
     908:	0016f693          	andi	a3,a3,1
     90c:	00167613          	andi	a2,a2,1
     910:	d1c50513          	addi	a0,a0,-740 # 1d1c <main+0x38c>
     914:	00112c23          	sw	ra,24(sp)
     918:	e59ff0ef          	jal	ra,770 <_printf>
     91c:	01812083          	lw	ra,24(sp)
     920:	01c10113          	addi	sp,sp,28
     924:	00008067          	ret

00000928 <getw>:
     928:	ff410113          	addi	sp,sp,-12
     92c:	00112423          	sw	ra,8(sp)
     930:	00812223          	sw	s0,4(sp)
     934:	00912023          	sw	s1,0(sp)
     938:	eadff0ef          	jal	ra,7e4 <_getch>
     93c:	00050493          	mv	s1,a0
     940:	ea5ff0ef          	jal	ra,7e4 <_getch>
     944:	00050413          	mv	s0,a0
     948:	e9dff0ef          	jal	ra,7e4 <_getch>
     94c:	01051513          	slli	a0,a0,0x10
     950:	00841413          	slli	s0,s0,0x8
     954:	00a46433          	or	s0,s0,a0
     958:	e8dff0ef          	jal	ra,7e4 <_getch>
     95c:	00946433          	or	s0,s0,s1
     960:	01851513          	slli	a0,a0,0x18
     964:	00812083          	lw	ra,8(sp)
     968:	00856533          	or	a0,a0,s0
     96c:	00412403          	lw	s0,4(sp)
     970:	00012483          	lw	s1,0(sp)
     974:	00c10113          	addi	sp,sp,12
     978:	00008067          	ret

0000097c <_memcpy>:
     97c:	02060263          	beqz	a2,9a0 <_memcpy+0x24>
     980:	00000793          	li	a5,0
     984:	00f58733          	add	a4,a1,a5
     988:	00074683          	lbu	a3,0(a4)
     98c:	00f50733          	add	a4,a0,a5
     990:	00178793          	addi	a5,a5,1
     994:	00d70023          	sb	a3,0(a4)
     998:	fef616e3          	bne	a2,a5,984 <_memcpy+0x8>
     99c:	00c50533          	add	a0,a0,a2
     9a0:	00008067          	ret

000009a4 <_getch1>:
     9a4:	00002737          	lui	a4,0x2
     9a8:	00002637          	lui	a2,0x2
     9ac:	62b74683          	lbu	a3,1579(a4) # 262b <rdix1>
     9b0:	62a64783          	lbu	a5,1578(a2) # 262a <wrix1>
     9b4:	fef68ce3          	beq	a3,a5,9ac <_getch1+0x8>
     9b8:	62b74683          	lbu	a3,1579(a4)
     9bc:	00168793          	addi	a5,a3,1
     9c0:	0ff7f793          	zext.b	a5,a5
     9c4:	62f705a3          	sb	a5,1579(a4)
     9c8:	000027b7          	lui	a5,0x2
     9cc:	3b878793          	addi	a5,a5,952 # 23b8 <udat0>
     9d0:	00d787b3          	add	a5,a5,a3
     9d4:	62b74683          	lbu	a3,1579(a4)
     9d8:	0207c503          	lbu	a0,32(a5)
     9dc:	07f6f693          	andi	a3,a3,127
     9e0:	62d705a3          	sb	a3,1579(a4)
     9e4:	00008067          	ret

000009e8 <_putch2>:
     9e8:	e0000737          	lui	a4,0xe0000
     9ec:	00c72783          	lw	a5,12(a4) # e000000c <_ebss+0xdfffd9dc>
     9f0:	0027f793          	andi	a5,a5,2
     9f4:	fe078ce3          	beqz	a5,9ec <_putch2+0x4>
     9f8:	0ff57513          	zext.b	a0,a0
     9fc:	00a70423          	sb	a0,8(a4)
     a00:	00008067          	ret

00000a04 <strchr>:
     a04:	00054783          	lbu	a5,0(a0)
     a08:	00078a63          	beqz	a5,a1c <strchr+0x18>
     a0c:	00b79463          	bne	a5,a1,a14 <strchr+0x10>
     a10:	00008067          	ret
     a14:	00150513          	addi	a0,a0,1
     a18:	fedff06f          	j	a04 <strchr>
     a1c:	00058663          	beqz	a1,a28 <strchr+0x24>
     a20:	00002537          	lui	a0,0x2
     a24:	d0050513          	addi	a0,a0,-768 # 1d00 <main+0x370>
     a28:	00008067          	ret

00000a2c <parse_comma_delimited_str>:
     a2c:	ff010113          	addi	sp,sp,-16
     a30:	00812423          	sw	s0,8(sp)
     a34:	00912223          	sw	s1,4(sp)
     a38:	00112623          	sw	ra,12(sp)
     a3c:	00058493          	mv	s1,a1
     a40:	00a5a023          	sw	a0,0(a1)
     a44:	00100413          	li	s0,1
     a48:	02c45063          	bge	s0,a2,a68 <parse_comma_delimited_str+0x3c>
     a4c:	02c00593          	li	a1,44
     a50:	00c12023          	sw	a2,0(sp)
     a54:	fb1ff0ef          	jal	ra,a04 <strchr>
     a58:	00002737          	lui	a4,0x2
     a5c:	d0070793          	addi	a5,a4,-768 # 1d00 <main+0x370>
     a60:	00012603          	lw	a2,0(sp)
     a64:	00f51e63          	bne	a0,a5,a80 <parse_comma_delimited_str+0x54>
     a68:	00c12083          	lw	ra,12(sp)
     a6c:	fff40513          	addi	a0,s0,-1
     a70:	00812403          	lw	s0,8(sp)
     a74:	00412483          	lw	s1,4(sp)
     a78:	01010113          	addi	sp,sp,16
     a7c:	00008067          	ret
     a80:	00241793          	slli	a5,s0,0x2
     a84:	00050023          	sb	zero,0(a0)
     a88:	00f487b3          	add	a5,s1,a5
     a8c:	00150513          	addi	a0,a0,1
     a90:	00a7a023          	sw	a0,0(a5)
     a94:	00140413          	addi	s0,s0,1
     a98:	fb1ff06f          	j	a48 <parse_comma_delimited_str+0x1c>

00000a9c <strncmp>:
     a9c:	ff410113          	addi	sp,sp,-12
     aa0:	00812223          	sw	s0,4(sp)
     aa4:	00912023          	sw	s1,0(sp)
     aa8:	00112423          	sw	ra,8(sp)
     aac:	00050493          	mv	s1,a0
     ab0:	00058413          	mv	s0,a1
     ab4:	c89ff0ef          	jal	ra,73c <_puts>
     ab8:	00100793          	li	a5,1
     abc:	00700613          	li	a2,7
     ac0:	00f486b3          	add	a3,s1,a5
     ac4:	00f40733          	add	a4,s0,a5
     ac8:	0006c683          	lbu	a3,0(a3)
     acc:	fff74703          	lbu	a4,-1(a4)
     ad0:	00e68e63          	beq	a3,a4,aec <strncmp+0x50>
     ad4:	fff00513          	li	a0,-1
     ad8:	00812083          	lw	ra,8(sp)
     adc:	00412403          	lw	s0,4(sp)
     ae0:	00012483          	lw	s1,0(sp)
     ae4:	00c10113          	addi	sp,sp,12
     ae8:	00008067          	ret
     aec:	00178793          	addi	a5,a5,1
     af0:	fcc798e3          	bne	a5,a2,ac0 <strncmp+0x24>
     af4:	00000513          	li	a0,0
     af8:	fe1ff06f          	j	ad8 <strncmp+0x3c>

00000afc <getGPSFrame>:
     afc:	000027b7          	lui	a5,0x2
     b00:	f9810113          	addi	sp,sp,-104
     b04:	3b878793          	addi	a5,a5,952 # 23b8 <udat0>
     b08:	06812023          	sw	s0,96(sp)
     b0c:	06112223          	sw	ra,100(sp)
     b10:	04912e23          	sw	s1,92(sp)
     b14:	000105a3          	sb	zero,11(sp)
     b18:	00000413          	li	s0,0
     b1c:	00f12223          	sw	a5,4(sp)
     b20:	000027b7          	lui	a5,0x2
     b24:	3b67c683          	lbu	a3,950(a5) # 23b6 <GPS_FF>
     b28:	03000713          	li	a4,48
     b2c:	22e68663          	beq	a3,a4,d58 <getGPSFrame+0x25c>
     b30:	3ae78b23          	sb	a4,950(a5)
     b34:	00412783          	lw	a5,4(sp)
     b38:	000025b7          	lui	a1,0x2
     b3c:	d3858593          	addi	a1,a1,-712 # 1d38 <main+0x3a8>
     b40:	0a078513          	addi	a0,a5,160
     b44:	f59ff0ef          	jal	ra,a9c <strncmp>
     b48:	000027b7          	lui	a5,0x2
     b4c:	45878793          	addi	a5,a5,1112 # 2458 <GPS_FRAME>
     b50:	00f12023          	sw	a5,0(sp)
     b54:	22051863          	bnez	a0,d84 <getGPSFrame+0x288>
     b58:	00012503          	lw	a0,0(sp)
     b5c:	01400613          	li	a2,20
     b60:	00c10593          	addi	a1,sp,12
     b64:	ec9ff0ef          	jal	ra,a2c <parse_comma_delimited_str>
     b68:	00002537          	lui	a0,0x2
     b6c:	d4050513          	addi	a0,a0,-704 # 1d40 <main+0x3b0>
     b70:	bcdff0ef          	jal	ra,73c <_puts>
     b74:	00002537          	lui	a0,0x2
     b78:	d7050513          	addi	a0,a0,-656 # 1d70 <main+0x3e0>
     b7c:	bc1ff0ef          	jal	ra,73c <_puts>
     b80:	00002537          	lui	a0,0x2
     b84:	d8050513          	addi	a0,a0,-640 # 1d80 <main+0x3f0>
     b88:	bb5ff0ef          	jal	ra,73c <_puts>
     b8c:	01012483          	lw	s1,16(sp)
     b90:	00140413          	addi	s0,s0,1
     b94:	0ff47413          	zext.b	s0,s0
     b98:	0004c503          	lbu	a0,0(s1)
     b9c:	ec8ff0ef          	jal	ra,264 <_putch>
     ba0:	0014c503          	lbu	a0,1(s1)
     ba4:	ec0ff0ef          	jal	ra,264 <_putch>
     ba8:	00002537          	lui	a0,0x2
     bac:	d8850513          	addi	a0,a0,-632 # 1d88 <main+0x3f8>
     bb0:	b8dff0ef          	jal	ra,73c <_puts>
     bb4:	0024c503          	lbu	a0,2(s1)
     bb8:	eacff0ef          	jal	ra,264 <_putch>
     bbc:	0034c503          	lbu	a0,3(s1)
     bc0:	ea4ff0ef          	jal	ra,264 <_putch>
     bc4:	00002537          	lui	a0,0x2
     bc8:	d9450513          	addi	a0,a0,-620 # 1d94 <main+0x404>
     bcc:	b71ff0ef          	jal	ra,73c <_puts>
     bd0:	0044c503          	lbu	a0,4(s1)
     bd4:	e90ff0ef          	jal	ra,264 <_putch>
     bd8:	0054c503          	lbu	a0,5(s1)
     bdc:	e88ff0ef          	jal	ra,264 <_putch>
     be0:	00a00513          	li	a0,10
     be4:	e80ff0ef          	jal	ra,264 <_putch>
     be8:	00002537          	lui	a0,0x2
     bec:	da450513          	addi	a0,a0,-604 # 1da4 <main+0x414>
     bf0:	b4dff0ef          	jal	ra,73c <_puts>
     bf4:	01412503          	lw	a0,20(sp)
     bf8:	b45ff0ef          	jal	ra,73c <_puts>
     bfc:	00a00513          	li	a0,10
     c00:	e64ff0ef          	jal	ra,264 <_putch>
     c04:	00002537          	lui	a0,0x2
     c08:	db450513          	addi	a0,a0,-588 # 1db4 <main+0x424>
     c0c:	b31ff0ef          	jal	ra,73c <_puts>
     c10:	01c12503          	lw	a0,28(sp)
     c14:	b29ff0ef          	jal	ra,73c <_puts>
     c18:	00a00513          	li	a0,10
     c1c:	e48ff0ef          	jal	ra,264 <_putch>
     c20:	00002537          	lui	a0,0x2
     c24:	dc450513          	addi	a0,a0,-572 # 1dc4 <main+0x434>
     c28:	b15ff0ef          	jal	ra,73c <_puts>
     c2c:	03012503          	lw	a0,48(sp)
     c30:	b0dff0ef          	jal	ra,73c <_puts>
     c34:	00a00513          	li	a0,10
     c38:	e2cff0ef          	jal	ra,264 <_putch>
     c3c:	00002537          	lui	a0,0x2
     c40:	dd450513          	addi	a0,a0,-556 # 1dd4 <main+0x444>
     c44:	af9ff0ef          	jal	ra,73c <_puts>
     c48:	02812503          	lw	a0,40(sp)
     c4c:	af1ff0ef          	jal	ra,73c <_puts>
     c50:	00a00513          	li	a0,10
     c54:	e10ff0ef          	jal	ra,264 <_putch>
     c58:	00002537          	lui	a0,0x2
     c5c:	de450513          	addi	a0,a0,-540 # 1de4 <main+0x454>
     c60:	addff0ef          	jal	ra,73c <_puts>
     c64:	00012503          	lw	a0,0(sp)
     c68:	000025b7          	lui	a1,0x2
     c6c:	df058593          	addi	a1,a1,-528 # 1df0 <main+0x460>
     c70:	e2dff0ef          	jal	ra,a9c <strncmp>
     c74:	12051463          	bnez	a0,d9c <getGPSFrame+0x2a0>
     c78:	00012503          	lw	a0,0(sp)
     c7c:	01400613          	li	a2,20
     c80:	00c10593          	addi	a1,sp,12
     c84:	da9ff0ef          	jal	ra,a2c <parse_comma_delimited_str>
     c88:	00002537          	lui	a0,0x2
     c8c:	df850513          	addi	a0,a0,-520 # 1df8 <main+0x468>
     c90:	aadff0ef          	jal	ra,73c <_puts>
     c94:	00002537          	lui	a0,0x2
     c98:	e0850513          	addi	a0,a0,-504 # 1e08 <main+0x478>
     c9c:	aa1ff0ef          	jal	ra,73c <_puts>
     ca0:	03012483          	lw	s1,48(sp)
     ca4:	00140413          	addi	s0,s0,1
     ca8:	0ff47413          	zext.b	s0,s0
     cac:	0004c503          	lbu	a0,0(s1)
     cb0:	db4ff0ef          	jal	ra,264 <_putch>
     cb4:	0014c503          	lbu	a0,1(s1)
     cb8:	dacff0ef          	jal	ra,264 <_putch>
     cbc:	00002537          	lui	a0,0x2
     cc0:	e1050513          	addi	a0,a0,-496 # 1e10 <main+0x480>
     cc4:	a79ff0ef          	jal	ra,73c <_puts>
     cc8:	0024c503          	lbu	a0,2(s1)
     ccc:	d98ff0ef          	jal	ra,264 <_putch>
     cd0:	0034c503          	lbu	a0,3(s1)
     cd4:	d90ff0ef          	jal	ra,264 <_putch>
     cd8:	00002537          	lui	a0,0x2
     cdc:	e1850513          	addi	a0,a0,-488 # 1e18 <main+0x488>
     ce0:	a5dff0ef          	jal	ra,73c <_puts>
     ce4:	0044c503          	lbu	a0,4(s1)
     ce8:	d7cff0ef          	jal	ra,264 <_putch>
     cec:	0054c503          	lbu	a0,5(s1)
     cf0:	d74ff0ef          	jal	ra,264 <_putch>
     cf4:	00a00513          	li	a0,10
     cf8:	d6cff0ef          	jal	ra,264 <_putch>
     cfc:	00a00513          	li	a0,10
     d00:	d64ff0ef          	jal	ra,264 <_putch>
     d04:	00a00513          	li	a0,10
     d08:	d5cff0ef          	jal	ra,264 <_putch>
     d0c:	00002537          	lui	a0,0x2
     d10:	de450513          	addi	a0,a0,-540 # 1de4 <main+0x454>
     d14:	a29ff0ef          	jal	ra,73c <_puts>
     d18:	00000493          	li	s1,0
     d1c:	00b14783          	lbu	a5,11(sp)
     d20:	00002737          	lui	a4,0x2
     d24:	fff78793          	addi	a5,a5,-1
     d28:	08f4c663          	blt	s1,a5,db4 <getGPSFrame+0x2b8>
     d2c:	00100793          	li	a5,1
     d30:	de87f8e3          	bgeu	a5,s0,b20 <getGPSFrame+0x24>
     d34:	00002537          	lui	a0,0x2
     d38:	e3450513          	addi	a0,a0,-460 # 1e34 <main+0x4a4>
     d3c:	a01ff0ef          	jal	ra,73c <_puts>
     d40:	06412083          	lw	ra,100(sp)
     d44:	06012403          	lw	s0,96(sp)
     d48:	00b14503          	lbu	a0,11(sp)
     d4c:	05c12483          	lw	s1,92(sp)
     d50:	06810113          	addi	sp,sp,104
     d54:	00008067          	ret
     d58:	00b14483          	lbu	s1,11(sp)
     d5c:	c49ff0ef          	jal	ra,9a4 <_getch1>
     d60:	00412783          	lw	a5,4(sp)
     d64:	0ff4f493          	zext.b	s1,s1
     d68:	009784b3          	add	s1,a5,s1
     d6c:	00b14783          	lbu	a5,11(sp)
     d70:	0aa48023          	sb	a0,160(s1)
     d74:	00178793          	addi	a5,a5,1
     d78:	0ff7f793          	zext.b	a5,a5
     d7c:	00f105a3          	sb	a5,11(sp)
     d80:	da1ff06f          	j	b20 <getGPSFrame+0x24>
     d84:	00012503          	lw	a0,0(sp)
     d88:	000025b7          	lui	a1,0x2
     d8c:	de858593          	addi	a1,a1,-536 # 1de8 <main+0x458>
     d90:	d0dff0ef          	jal	ra,a9c <strncmp>
     d94:	dc0502e3          	beqz	a0,b58 <getGPSFrame+0x5c>
     d98:	ecdff06f          	j	c64 <getGPSFrame+0x168>
     d9c:	00012503          	lw	a0,0(sp)
     da0:	000025b7          	lui	a1,0x2
     da4:	e2458593          	addi	a1,a1,-476 # 1e24 <main+0x494>
     da8:	cf5ff0ef          	jal	ra,a9c <strncmp>
     dac:	ec0506e3          	beqz	a0,c78 <getGPSFrame+0x17c>
     db0:	f69ff06f          	j	d18 <getGPSFrame+0x21c>
     db4:	00012783          	lw	a5,0(sp)
     db8:	e2c70513          	addi	a0,a4,-468 # 1e2c <main+0x49c>
     dbc:	009787b3          	add	a5,a5,s1
     dc0:	00078023          	sb	zero,0(a5)
     dc4:	979ff0ef          	jal	ra,73c <_puts>
     dc8:	00148493          	addi	s1,s1,1
     dcc:	f51ff06f          	j	d1c <getGPSFrame+0x220>

00000dd0 <spixfer>:
     dd0:	e00007b7          	lui	a5,0xe0000
     dd4:	02a7a023          	sw	a0,32(a5) # e0000020 <_ebss+0xdfffd9f0>
     dd8:	e0000737          	lui	a4,0xe0000
     ddc:	02472783          	lw	a5,36(a4) # e0000024 <_ebss+0xdfffd9f4>
     de0:	0017f793          	andi	a5,a5,1
     de4:	fe079ce3          	bnez	a5,ddc <spixfer+0xc>
     de8:	02072503          	lw	a0,32(a4)
     dec:	0ff57513          	zext.b	a0,a0
     df0:	00008067          	ret

00000df4 <readBME680>:
     df4:	ff410113          	addi	sp,sp,-12
     df8:	00112423          	sw	ra,8(sp)
     dfc:	00812223          	sw	s0,4(sp)
     e00:	00200793          	li	a5,2
     e04:	e0000437          	lui	s0,0xe0000
     e08:	02f42423          	sw	a5,40(s0) # e0000028 <_ebss+0xdfffd9f8>
     e0c:	08056513          	ori	a0,a0,128
     e10:	fc1ff0ef          	jal	ra,dd0 <spixfer>
     e14:	00000513          	li	a0,0
     e18:	fb9ff0ef          	jal	ra,dd0 <spixfer>
     e1c:	00300793          	li	a5,3
     e20:	00812083          	lw	ra,8(sp)
     e24:	02f42423          	sw	a5,40(s0)
     e28:	00412403          	lw	s0,4(sp)
     e2c:	00c10113          	addi	sp,sp,12
     e30:	00008067          	ret

00000e34 <writeBME680>:
     e34:	ff410113          	addi	sp,sp,-12
     e38:	00112423          	sw	ra,8(sp)
     e3c:	00812223          	sw	s0,4(sp)
     e40:	00912023          	sw	s1,0(sp)
     e44:	00200793          	li	a5,2
     e48:	e00004b7          	lui	s1,0xe0000
     e4c:	02f4a423          	sw	a5,40(s1) # e0000028 <_ebss+0xdfffd9f8>
     e50:	00050413          	mv	s0,a0
     e54:	00058513          	mv	a0,a1
     e58:	f79ff0ef          	jal	ra,dd0 <spixfer>
     e5c:	00040513          	mv	a0,s0
     e60:	f71ff0ef          	jal	ra,dd0 <spixfer>
     e64:	00812083          	lw	ra,8(sp)
     e68:	00412403          	lw	s0,4(sp)
     e6c:	00300793          	li	a5,3
     e70:	02f4a423          	sw	a5,40(s1)
     e74:	00012483          	lw	s1,0(sp)
     e78:	00c10113          	addi	sp,sp,12
     e7c:	00008067          	ret

00000e80 <readAllBMERegs>:
     e80:	fec10113          	addi	sp,sp,-20
     e84:	07300593          	li	a1,115
     e88:	00000513          	li	a0,0
     e8c:	00812623          	sw	s0,12(sp)
     e90:	00912423          	sw	s1,8(sp)
     e94:	00112823          	sw	ra,16(sp)
     e98:	f9dff0ef          	jal	ra,e34 <writeBME680>
     e9c:	000027b7          	lui	a5,0x2
     ea0:	3b878713          	addi	a4,a5,952 # 23b8 <udat0>
     ea4:	17070713          	addi	a4,a4,368
     ea8:	08000413          	li	s0,128
     eac:	3b878493          	addi	s1,a5,952
     eb0:	00000793          	li	a5,0
     eb4:	00f40533          	add	a0,s0,a5
     eb8:	0ff57513          	zext.b	a0,a0
     ebc:	00e12223          	sw	a4,4(sp)
     ec0:	00f12023          	sw	a5,0(sp)
     ec4:	f31ff0ef          	jal	ra,df4 <readBME680>
     ec8:	00012783          	lw	a5,0(sp)
     ecc:	00412703          	lw	a4,4(sp)
     ed0:	00f706b3          	add	a3,a4,a5
     ed4:	00a68023          	sb	a0,0(a3)
     ed8:	00178793          	addi	a5,a5,1
     edc:	01000693          	li	a3,16
     ee0:	fcd79ae3          	bne	a5,a3,eb4 <readAllBMERegs+0x34>
     ee4:	01040413          	addi	s0,s0,16
     ee8:	0ff47413          	zext.b	s0,s0
     eec:	01070713          	addi	a4,a4,16
     ef0:	fc0410e3          	bnez	s0,eb0 <readAllBMERegs+0x30>
     ef4:	07300593          	li	a1,115
     ef8:	01000513          	li	a0,16
     efc:	f39ff0ef          	jal	ra,e34 <writeBME680>
     f00:	0f048793          	addi	a5,s1,240
     f04:	00000493          	li	s1,0
     f08:	00940533          	add	a0,s0,s1
     f0c:	0ff57513          	zext.b	a0,a0
     f10:	00f12023          	sw	a5,0(sp)
     f14:	ee1ff0ef          	jal	ra,df4 <readBME680>
     f18:	00012783          	lw	a5,0(sp)
     f1c:	00978733          	add	a4,a5,s1
     f20:	00a70023          	sb	a0,0(a4)
     f24:	00148493          	addi	s1,s1,1
     f28:	01000713          	li	a4,16
     f2c:	fce49ee3          	bne	s1,a4,f08 <readAllBMERegs+0x88>
     f30:	01040413          	addi	s0,s0,16
     f34:	0ff47413          	zext.b	s0,s0
     f38:	08000713          	li	a4,128
     f3c:	01078793          	addi	a5,a5,16
     f40:	fce412e3          	bne	s0,a4,f04 <readAllBMERegs+0x84>
     f44:	01012083          	lw	ra,16(sp)
     f48:	00c12403          	lw	s0,12(sp)
     f4c:	00812483          	lw	s1,8(sp)
     f50:	01410113          	addi	sp,sp,20
     f54:	00008067          	ret

00000f58 <printBMERegs>:
     f58:	00002537          	lui	a0,0x2
     f5c:	fe810113          	addi	sp,sp,-24
     f60:	e3c50513          	addi	a0,a0,-452 # 1e3c <main+0x4ac>
     f64:	00112a23          	sw	ra,20(sp)
     f68:	00812823          	sw	s0,16(sp)
     f6c:	00912623          	sw	s1,12(sp)
     f70:	fccff0ef          	jal	ra,73c <_puts>
     f74:	000027b7          	lui	a5,0x2
     f78:	3b878793          	addi	a5,a5,952 # 23b8 <udat0>
     f7c:	00800713          	li	a4,8
     f80:	00f12023          	sw	a5,0(sp)
     f84:	00012783          	lw	a5,0(sp)
     f88:	00471493          	slli	s1,a4,0x4
     f8c:	0f078413          	addi	s0,a5,240
     f90:	008484b3          	add	s1,s1,s0
     f94:	00000793          	li	a5,0
     f98:	00f486b3          	add	a3,s1,a5
     f9c:	0006c583          	lbu	a1,0(a3)
     fa0:	00f12223          	sw	a5,4(sp)
     fa4:	000027b7          	lui	a5,0x2
     fa8:	e5878513          	addi	a0,a5,-424 # 1e58 <main+0x4c8>
     fac:	00e12423          	sw	a4,8(sp)
     fb0:	fc0ff0ef          	jal	ra,770 <_printf>
     fb4:	00412783          	lw	a5,4(sp)
     fb8:	01000693          	li	a3,16
     fbc:	00812703          	lw	a4,8(sp)
     fc0:	00178793          	addi	a5,a5,1
     fc4:	fcd79ae3          	bne	a5,a3,f98 <printBMERegs+0x40>
     fc8:	000024b7          	lui	s1,0x2
     fcc:	1dc48513          	addi	a0,s1,476 # 21dc <main+0x84c>
     fd0:	00f12423          	sw	a5,8(sp)
     fd4:	00e12223          	sw	a4,4(sp)
     fd8:	f64ff0ef          	jal	ra,73c <_puts>
     fdc:	00412703          	lw	a4,4(sp)
     fe0:	00812783          	lw	a5,8(sp)
     fe4:	00170713          	addi	a4,a4,1
     fe8:	f8f71ee3          	bne	a4,a5,f84 <printBMERegs+0x2c>
     fec:	1dc48513          	addi	a0,s1,476
     ff0:	f4cff0ef          	jal	ra,73c <_puts>
     ff4:	00000793          	li	a5,0
     ff8:	00f40733          	add	a4,s0,a5
     ffc:	00074583          	lbu	a1,0(a4)
    1000:	00f12023          	sw	a5,0(sp)
    1004:	000027b7          	lui	a5,0x2
    1008:	e5878513          	addi	a0,a5,-424 # 1e58 <main+0x4c8>
    100c:	f64ff0ef          	jal	ra,770 <_printf>
    1010:	00012783          	lw	a5,0(sp)
    1014:	01000713          	li	a4,16
    1018:	00178793          	addi	a5,a5,1
    101c:	fce79ee3          	bne	a5,a4,ff8 <printBMERegs+0xa0>
    1020:	1dc48513          	addi	a0,s1,476
    1024:	f18ff0ef          	jal	ra,73c <_puts>
    1028:	000027b7          	lui	a5,0x2
    102c:	01040413          	addi	s0,s0,16
    1030:	52878793          	addi	a5,a5,1320 # 2528 <bmeRegs+0x80>
    1034:	fcf410e3          	bne	s0,a5,ff4 <printBMERegs+0x9c>
    1038:	01412083          	lw	ra,20(sp)
    103c:	01012403          	lw	s0,16(sp)
    1040:	00c12483          	lw	s1,12(sp)
    1044:	01810113          	addi	sp,sp,24
    1048:	00008067          	ret

0000104c <bmeReg>:
    104c:	000027b7          	lui	a5,0x2
    1050:	00f57713          	andi	a4,a0,15
    1054:	3b878793          	addi	a5,a5,952 # 23b8 <udat0>
    1058:	0f057513          	andi	a0,a0,240
    105c:	00a787b3          	add	a5,a5,a0
    1060:	00e787b3          	add	a5,a5,a4
    1064:	0f07c503          	lbu	a0,240(a5)
    1068:	00008067          	ret

0000106c <startBME680>:
    106c:	ff410113          	addi	sp,sp,-12
    1070:	07300593          	li	a1,115
    1074:	01000513          	li	a0,16
    1078:	00112423          	sw	ra,8(sp)
    107c:	00812223          	sw	s0,4(sp)
    1080:	db5ff0ef          	jal	ra,e34 <writeBME680>
    1084:	07200593          	li	a1,114
    1088:	00100513          	li	a0,1
    108c:	00001437          	lui	s0,0x1
    1090:	da5ff0ef          	jal	ra,e34 <writeBME680>
    1094:	76640513          	addi	a0,s0,1894 # 1766 <readLoRA+0x22>
    1098:	fc9fe0ef          	jal	ra,60 <delay_loop>
    109c:	07400593          	li	a1,116
    10a0:	05400513          	li	a0,84
    10a4:	d91ff0ef          	jal	ra,e34 <writeBME680>
    10a8:	76640513          	addi	a0,s0,1894
    10ac:	fb5fe0ef          	jal	ra,60 <delay_loop>
    10b0:	07100593          	li	a1,113
    10b4:	01000513          	li	a0,16
    10b8:	d7dff0ef          	jal	ra,e34 <writeBME680>
    10bc:	76640513          	addi	a0,s0,1894
    10c0:	fa1fe0ef          	jal	ra,60 <delay_loop>
    10c4:	06d00593          	li	a1,109
    10c8:	05900513          	li	a0,89
    10cc:	d69ff0ef          	jal	ra,e34 <writeBME680>
    10d0:	76640513          	addi	a0,s0,1894
    10d4:	f8dfe0ef          	jal	ra,60 <delay_loop>
    10d8:	06300593          	li	a1,99
    10dc:	00000513          	li	a0,0
    10e0:	d55ff0ef          	jal	ra,e34 <writeBME680>
    10e4:	76640513          	addi	a0,s0,1894
    10e8:	f79fe0ef          	jal	ra,60 <delay_loop>
    10ec:	05500513          	li	a0,85
    10f0:	07400593          	li	a1,116
    10f4:	d41ff0ef          	jal	ra,e34 <writeBME680>
    10f8:	76640513          	addi	a0,s0,1894
    10fc:	00412403          	lw	s0,4(sp)
    1100:	00812083          	lw	ra,8(sp)
    1104:	00c10113          	addi	sp,sp,12
    1108:	f59fe06f          	j	60 <delay_loop>

0000110c <measureBME680>:
    110c:	fd410113          	addi	sp,sp,-44
    1110:	02112423          	sw	ra,40(sp)
    1114:	02812223          	sw	s0,36(sp)
    1118:	02912023          	sw	s1,32(sp)
    111c:	d65ff0ef          	jal	ra,e80 <readAllBMERegs>
    1120:	00002737          	lui	a4,0x2
    1124:	3b870413          	addi	s0,a4,952 # 23b8 <udat0>
    1128:	11244783          	lbu	a5,274(s0)
    112c:	11344683          	lbu	a3,275(s0)
    1130:	1d944603          	lbu	a2,473(s0)
    1134:	00c79793          	slli	a5,a5,0xc
    1138:	00469693          	slli	a3,a3,0x4
    113c:	00d7e7b3          	or	a5,a5,a3
    1140:	11444683          	lbu	a3,276(s0)
    1144:	0046d693          	srli	a3,a3,0x4
    1148:	00d7e7b3          	or	a5,a5,a3
    114c:	4037d693          	srai	a3,a5,0x3
    1150:	00f12223          	sw	a5,4(sp)
    1154:	1da44783          	lbu	a5,474(s0)
    1158:	00879793          	slli	a5,a5,0x8
    115c:	00c7e7b3          	or	a5,a5,a2
    1160:	00179793          	slli	a5,a5,0x1
    1164:	40f687b3          	sub	a5,a3,a5
    1168:	4017d593          	srai	a1,a5,0x1
    116c:	00058513          	mv	a0,a1
    1170:	00f12023          	sw	a5,0(sp)
    1174:	744000ef          	jal	ra,18b8 <__mulsi3>
    1178:	17c44583          	lbu	a1,380(s0)
    117c:	40c55513          	srai	a0,a0,0xc
    1180:	00459593          	slli	a1,a1,0x4
    1184:	734000ef          	jal	ra,18b8 <__mulsi3>
    1188:	00012783          	lw	a5,0(sp)
    118c:	40e55493          	srai	s1,a0,0xe
    1190:	17a45503          	lhu	a0,378(s0)
    1194:	00078593          	mv	a1,a5
    1198:	720000ef          	jal	ra,18b8 <__mulsi3>
    119c:	40b55513          	srai	a0,a0,0xb
    11a0:	00a484b3          	add	s1,s1,a0
    11a4:	00249793          	slli	a5,s1,0x2
    11a8:	009787b3          	add	a5,a5,s1
    11ac:	08078793          	addi	a5,a5,128
    11b0:	4087d793          	srai	a5,a5,0x8
    11b4:	00f12023          	sw	a5,0(sp)
    11b8:	18844783          	lbu	a5,392(s0)
    11bc:	4014d493          	srai	s1,s1,0x1
    11c0:	00f12423          	sw	a5,8(sp)
    11c4:	18c45783          	lhu	a5,396(s0)
    11c8:	00f12623          	sw	a5,12(sp)
    11cc:	18e45783          	lhu	a5,398(s0)
    11d0:	00f12823          	sw	a5,16(sp)
    11d4:	19044783          	lbu	a5,400(s0)
    11d8:	00f12a23          	sw	a5,20(sp)
    11dc:	ffff07b7          	lui	a5,0xffff0
    11e0:	60078793          	addi	a5,a5,1536 # ffff0600 <_ebss+0xfffedfd0>
    11e4:	00f484b3          	add	s1,s1,a5
    11e8:	4024d593          	srai	a1,s1,0x2
    11ec:	00058513          	mv	a0,a1
    11f0:	6c8000ef          	jal	ra,18b8 <__mulsi3>
    11f4:	18944583          	lbu	a1,393(s0)
    11f8:	00050793          	mv	a5,a0
    11fc:	40b55513          	srai	a0,a0,0xb
    1200:	00f12e23          	sw	a5,28(sp)
    1204:	6b4000ef          	jal	ra,18b8 <__mulsi3>
    1208:	40255613          	srai	a2,a0,0x2
    120c:	18645503          	lhu	a0,390(s0)
    1210:	00048593          	mv	a1,s1
    1214:	00c12c23          	sw	a2,24(sp)
    1218:	6a0000ef          	jal	ra,18b8 <__mulsi3>
    121c:	01812603          	lw	a2,24(sp)
    1220:	00151693          	slli	a3,a0,0x1
    1224:	18045503          	lhu	a0,384(s0)
    1228:	00c686b3          	add	a3,a3,a2
    122c:	4026d693          	srai	a3,a3,0x2
    1230:	00048593          	mv	a1,s1
    1234:	00d12c23          	sw	a3,24(sp)
    1238:	680000ef          	jal	ra,18b8 <__mulsi3>
    123c:	01c12783          	lw	a5,28(sp)
    1240:	40155493          	srai	s1,a0,0x1
    1244:	18244503          	lbu	a0,386(s0)
    1248:	40d7d593          	srai	a1,a5,0xd
    124c:	00551513          	slli	a0,a0,0x5
    1250:	668000ef          	jal	ra,18b8 <__mulsi3>
    1254:	40355513          	srai	a0,a0,0x3
    1258:	17e45583          	lhu	a1,382(s0)
    125c:	00950533          	add	a0,a0,s1
    1260:	000087b7          	lui	a5,0x8
    1264:	41255513          	srai	a0,a0,0x12
    1268:	00f50533          	add	a0,a0,a5
    126c:	64c000ef          	jal	ra,18b8 <__mulsi3>
    1270:	10f44783          	lbu	a5,271(s0)
    1274:	11044603          	lbu	a2,272(s0)
    1278:	40f55493          	srai	s1,a0,0xf
    127c:	00c79793          	slli	a5,a5,0xc
    1280:	00461613          	slli	a2,a2,0x4
    1284:	00c7e7b3          	or	a5,a5,a2
    1288:	11144603          	lbu	a2,273(s0)
    128c:	00100537          	lui	a0,0x100
    1290:	000015b7          	lui	a1,0x1
    1294:	00465613          	srli	a2,a2,0x4
    1298:	00c7e7b3          	or	a5,a5,a2
    129c:	40f50533          	sub	a0,a0,a5
    12a0:	18445783          	lhu	a5,388(s0)
    12a4:	01812683          	lw	a3,24(sp)
    12a8:	c3558593          	addi	a1,a1,-971 # c35 <getGPSFrame+0x139>
    12ac:	01079793          	slli	a5,a5,0x10
    12b0:	00d787b3          	add	a5,a5,a3
    12b4:	40c7d793          	srai	a5,a5,0xc
    12b8:	40f50533          	sub	a0,a0,a5
    12bc:	5fc000ef          	jal	ra,18b8 <__mulsi3>
    12c0:	400006b7          	lui	a3,0x40000
    12c4:	22d54663          	blt	a0,a3,14f0 <measureBME680+0x3e4>
    12c8:	00048593          	mv	a1,s1
    12cc:	618000ef          	jal	ra,18e4 <__hidden___udivsi3>
    12d0:	00151493          	slli	s1,a0,0x1
    12d4:	4034d593          	srai	a1,s1,0x3
    12d8:	00058513          	mv	a0,a1
    12dc:	5dc000ef          	jal	ra,18b8 <__mulsi3>
    12e0:	01012583          	lw	a1,16(sp)
    12e4:	40d55513          	srai	a0,a0,0xd
    12e8:	5d0000ef          	jal	ra,18b8 <__mulsi3>
    12ec:	00c12583          	lw	a1,12(sp)
    12f0:	40c55793          	srai	a5,a0,0xc
    12f4:	4024d513          	srai	a0,s1,0x2
    12f8:	00f12823          	sw	a5,16(sp)
    12fc:	5bc000ef          	jal	ra,18b8 <__mulsi3>
    1300:	01012783          	lw	a5,16(sp)
    1304:	4084d593          	srai	a1,s1,0x8
    1308:	40d55513          	srai	a0,a0,0xd
    130c:	00a787b3          	add	a5,a5,a0
    1310:	00058513          	mv	a0,a1
    1314:	00f12623          	sw	a5,12(sp)
    1318:	5a0000ef          	jal	ra,18b8 <__mulsi3>
    131c:	4084d593          	srai	a1,s1,0x8
    1320:	598000ef          	jal	ra,18b8 <__mulsi3>
    1324:	01412583          	lw	a1,20(sp)
    1328:	590000ef          	jal	ra,18b8 <__mulsi3>
    132c:	00812703          	lw	a4,8(sp)
    1330:	00c12783          	lw	a5,12(sp)
    1334:	41155513          	srai	a0,a0,0x11
    1338:	00771693          	slli	a3,a4,0x7
    133c:	00a787b3          	add	a5,a5,a0
    1340:	00d787b3          	add	a5,a5,a3
    1344:	00012583          	lw	a1,0(sp)
    1348:	1d644503          	lbu	a0,470(s0)
    134c:	4047d793          	srai	a5,a5,0x4
    1350:	009787b3          	add	a5,a5,s1
    1354:	00f12423          	sw	a5,8(sp)
    1358:	560000ef          	jal	ra,18b8 <__mulsi3>
    135c:	06400593          	li	a1,100
    1360:	57c000ef          	jal	ra,18dc <__divsi3>
    1364:	00012583          	lw	a1,0(sp)
    1368:	1d244483          	lbu	s1,466(s0)
    136c:	54c000ef          	jal	ra,18b8 <__mulsi3>
    1370:	06400593          	li	a1,100
    1374:	40655513          	srai	a0,a0,0x6
    1378:	564000ef          	jal	ra,18dc <__divsi3>
    137c:	00012583          	lw	a1,0(sp)
    1380:	00a12623          	sw	a0,12(sp)
    1384:	1d544503          	lbu	a0,469(s0)
    1388:	530000ef          	jal	ra,18b8 <__mulsi3>
    138c:	06400593          	li	a1,100
    1390:	54c000ef          	jal	ra,18dc <__divsi3>
    1394:	00c12783          	lw	a5,12(sp)
    1398:	1d144703          	lbu	a4,465(s0)
    139c:	0044d593          	srli	a1,s1,0x4
    13a0:	00a787b3          	add	a5,a5,a0
    13a4:	00471713          	slli	a4,a4,0x4
    13a8:	00004537          	lui	a0,0x4
    13ac:	00b765b3          	or	a1,a4,a1
    13b0:	00a78533          	add	a0,a5,a0
    13b4:	504000ef          	jal	ra,18b8 <__mulsi3>
    13b8:	40a55793          	srai	a5,a0,0xa
    13bc:	00f12623          	sw	a5,12(sp)
    13c0:	11644783          	lbu	a5,278(s0)
    13c4:	11544703          	lbu	a4,277(s0)
    13c8:	00012583          	lw	a1,0(sp)
    13cc:	00879793          	slli	a5,a5,0x8
    13d0:	00e7e7b3          	or	a5,a5,a4
    13d4:	00879713          	slli	a4,a5,0x8
    13d8:	0087d793          	srli	a5,a5,0x8
    13dc:	00f767b3          	or	a5,a4,a5
    13e0:	1d344703          	lbu	a4,467(s0)
    13e4:	00f4f493          	andi	s1,s1,15
    13e8:	1d844503          	lbu	a0,472(s0)
    13ec:	00471713          	slli	a4,a4,0x4
    13f0:	00976733          	or	a4,a4,s1
    13f4:	01079793          	slli	a5,a5,0x10
    13f8:	0107d793          	srli	a5,a5,0x10
    13fc:	00471713          	slli	a4,a4,0x4
    1400:	40e784b3          	sub	s1,a5,a4
    1404:	4b4000ef          	jal	ra,18b8 <__mulsi3>
    1408:	06400593          	li	a1,100
    140c:	4d0000ef          	jal	ra,18dc <__divsi3>
    1410:	40155593          	srai	a1,a0,0x1
    1414:	00c12503          	lw	a0,12(sp)
    1418:	40b485b3          	sub	a1,s1,a1
    141c:	49c000ef          	jal	ra,18b8 <__mulsi3>
    1420:	00050413          	mv	s0,a0
    1424:	00012503          	lw	a0,0(sp)
    1428:	06400593          	li	a1,100
    142c:	4b0000ef          	jal	ra,18dc <__divsi3>
    1430:	00050593          	mv	a1,a0
    1434:	00002537          	lui	a0,0x2
    1438:	0a700613          	li	a2,167
    143c:	e6050513          	addi	a0,a0,-416 # 1e60 <main+0x4d0>
    1440:	b30ff0ef          	jal	ra,770 <_printf>
    1444:	00412583          	lw	a1,4(sp)
    1448:	00002537          	lui	a0,0x2
    144c:	e7450513          	addi	a0,a0,-396 # 1e74 <main+0x4e4>
    1450:	b20ff0ef          	jal	ra,770 <_printf>
    1454:	00812503          	lw	a0,8(sp)
    1458:	06400593          	li	a1,100
    145c:	480000ef          	jal	ra,18dc <__divsi3>
    1460:	00050593          	mv	a1,a0
    1464:	00002537          	lui	a0,0x2
    1468:	e8450513          	addi	a0,a0,-380 # 1e84 <main+0x4f4>
    146c:	b04ff0ef          	jal	ra,770 <_printf>
    1470:	00012503          	lw	a0,0(sp)
    1474:	00000593          	li	a1,0
    1478:	440000ef          	jal	ra,18b8 <__mulsi3>
    147c:	06400593          	li	a1,100
    1480:	45c000ef          	jal	ra,18dc <__divsi3>
    1484:	40e45593          	srai	a1,s0,0xe
    1488:	40455493          	srai	s1,a0,0x4
    148c:	00058513          	mv	a0,a1
    1490:	428000ef          	jal	ra,18b8 <__mulsi3>
    1494:	40a55593          	srai	a1,a0,0xa
    1498:	00048513          	mv	a0,s1
    149c:	41c000ef          	jal	ra,18b8 <__mulsi3>
    14a0:	40155793          	srai	a5,a0,0x1
    14a4:	008787b3          	add	a5,a5,s0
    14a8:	40a7d793          	srai	a5,a5,0xa
    14ac:	00579513          	slli	a0,a5,0x5
    14b0:	40f50533          	sub	a0,a0,a5
    14b4:	00251513          	slli	a0,a0,0x2
    14b8:	00f50533          	add	a0,a0,a5
    14bc:	00351513          	slli	a0,a0,0x3
    14c0:	3e800593          	li	a1,1000
    14c4:	40c55513          	srai	a0,a0,0xc
    14c8:	414000ef          	jal	ra,18dc <__divsi3>
    14cc:	02412403          	lw	s0,36(sp)
    14d0:	02812083          	lw	ra,40(sp)
    14d4:	02012483          	lw	s1,32(sp)
    14d8:	00050593          	mv	a1,a0
    14dc:	00002537          	lui	a0,0x2
    14e0:	02500613          	li	a2,37
    14e4:	e9c50513          	addi	a0,a0,-356 # 1e9c <main+0x50c>
    14e8:	02c10113          	addi	sp,sp,44
    14ec:	a84ff06f          	j	770 <_printf>
    14f0:	00048593          	mv	a1,s1
    14f4:	00151513          	slli	a0,a0,0x1
    14f8:	3ec000ef          	jal	ra,18e4 <__hidden___udivsi3>
    14fc:	00050493          	mv	s1,a0
    1500:	dd5ff06f          	j	12d4 <measureBME680+0x1c8>

00001504 <test_depurFirst>:
    1504:	ff410113          	addi	sp,sp,-12
    1508:	00812223          	sw	s0,4(sp)
    150c:	00112423          	sw	ra,8(sp)
    1510:	e0000437          	lui	s0,0xe0000
    1514:	09b00793          	li	a5,155
    1518:	00002537          	lui	a0,0x2
    151c:	00f42223          	sw	a5,4(s0) # e0000004 <_ebss+0xdfffd9d4>
    1520:	eac50513          	addi	a0,a0,-340 # 1eac <main+0x51c>
    1524:	a18ff0ef          	jal	ra,73c <_puts>
    1528:	12000793          	li	a5,288
    152c:	0ef42623          	sw	a5,236(s0)
    1530:	00800793          	li	a5,8
    1534:	0cf42023          	sw	a5,192(s0)
    1538:	0112b7b7          	lui	a5,0x112b
    153c:	88078793          	addi	a5,a5,-1920 # 112a880 <_ebss+0x1128250>
    1540:	00812083          	lw	ra,8(sp)
    1544:	06f42023          	sw	a5,96(s0)
    1548:	00412403          	lw	s0,4(sp)
    154c:	00c10113          	addi	sp,sp,12
    1550:	00008067          	ret

00001554 <test_U1_IRQREAD>:
    1554:	ff410113          	addi	sp,sp,-12
    1558:	00112423          	sw	ra,8(sp)
    155c:	c48ff0ef          	jal	ra,9a4 <_getch1>
    1560:	00812083          	lw	ra,8(sp)
    1564:	00c10113          	addi	sp,sp,12
    1568:	cfdfe06f          	j	264 <_putch>

0000156c <test_U1_READ>:
    156c:	e0000737          	lui	a4,0xe0000
    1570:	00c72783          	lw	a5,12(a4) # e000000c <_ebss+0xdfffd9dc>
    1574:	0017f793          	andi	a5,a5,1
    1578:	fe078ce3          	beqz	a5,1570 <test_U1_READ+0x4>
    157c:	00874503          	lbu	a0,8(a4)
    1580:	ce5fe06f          	j	264 <_putch>

00001584 <test_U0_WRITE>:
    1584:	ce1fe06f          	j	264 <_putch>

00001588 <timerTest>:
    1588:	e0000737          	lui	a4,0xe0000
    158c:	00800793          	li	a5,8
    1590:	0cf72023          	sw	a5,192(a4) # e00000c0 <_ebss+0xdfffda90>
    1594:	0112b7b7          	lui	a5,0x112b
    1598:	88078793          	addi	a5,a5,-1920 # 112a880 <_ebss+0x1128250>
    159c:	06f72023          	sw	a5,96(a4)
    15a0:	00008067          	ret

000015a4 <GpoutTest>:
    15a4:	ff410113          	addi	sp,sp,-12
    15a8:	00912023          	sw	s1,0(sp)
    15ac:	005b94b7          	lui	s1,0x5b9
    15b0:	d7648513          	addi	a0,s1,-650 # 5b8d76 <_ebss+0x5b6746>
    15b4:	00112423          	sw	ra,8(sp)
    15b8:	00812223          	sw	s0,4(sp)
    15bc:	aa5fe0ef          	jal	ra,60 <delay_loop>
    15c0:	e0000437          	lui	s0,0xe0000
    15c4:	d7648513          	addi	a0,s1,-650
    15c8:	08040023          	sb	zero,128(s0) # e0000080 <_ebss+0xdfffda50>
    15cc:	a95fe0ef          	jal	ra,60 <delay_loop>
    15d0:	00100793          	li	a5,1
    15d4:	08f40023          	sb	a5,128(s0)
    15d8:	d7648513          	addi	a0,s1,-650
    15dc:	a85fe0ef          	jal	ra,60 <delay_loop>
    15e0:	00200793          	li	a5,2
    15e4:	08f40023          	sb	a5,128(s0)
    15e8:	d7648513          	addi	a0,s1,-650
    15ec:	a75fe0ef          	jal	ra,60 <delay_loop>
    15f0:	00400793          	li	a5,4
    15f4:	08f40023          	sb	a5,128(s0)
    15f8:	d7648513          	addi	a0,s1,-650
    15fc:	a65fe0ef          	jal	ra,60 <delay_loop>
    1600:	00800793          	li	a5,8
    1604:	08f40023          	sb	a5,128(s0)
    1608:	00812083          	lw	ra,8(sp)
    160c:	00412403          	lw	s0,4(sp)
    1610:	00012483          	lw	s1,0(sp)
    1614:	00c10113          	addi	sp,sp,12
    1618:	00008067          	ret

0000161c <GpinTest>:
    161c:	ff410113          	addi	sp,sp,-12
    1620:	e00007b7          	lui	a5,0xe0000
    1624:	00112423          	sw	ra,8(sp)
    1628:	00812223          	sw	s0,4(sp)
    162c:	0847c403          	lbu	s0,132(a5) # e0000084 <_ebss+0xdfffda54>
    1630:	00a00513          	li	a0,10
    1634:	c31fe0ef          	jal	ra,264 <_putch>
    1638:	0ff47413          	zext.b	s0,s0
    163c:	01841793          	slli	a5,s0,0x18
    1640:	4187d793          	srai	a5,a5,0x18
    1644:	03100513          	li	a0,49
    1648:	0007c463          	bltz	a5,1650 <GpinTest+0x34>
    164c:	03000513          	li	a0,48
    1650:	c15fe0ef          	jal	ra,264 <_putch>
    1654:	04047793          	andi	a5,s0,64
    1658:	03100513          	li	a0,49
    165c:	00079463          	bnez	a5,1664 <GpinTest+0x48>
    1660:	03000513          	li	a0,48
    1664:	c01fe0ef          	jal	ra,264 <_putch>
    1668:	02047793          	andi	a5,s0,32
    166c:	03100513          	li	a0,49
    1670:	00079463          	bnez	a5,1678 <GpinTest+0x5c>
    1674:	03000513          	li	a0,48
    1678:	bedfe0ef          	jal	ra,264 <_putch>
    167c:	01047793          	andi	a5,s0,16
    1680:	03100513          	li	a0,49
    1684:	00079463          	bnez	a5,168c <GpinTest+0x70>
    1688:	03000513          	li	a0,48
    168c:	bd9fe0ef          	jal	ra,264 <_putch>
    1690:	00847793          	andi	a5,s0,8
    1694:	03100513          	li	a0,49
    1698:	00079463          	bnez	a5,16a0 <GpinTest+0x84>
    169c:	03000513          	li	a0,48
    16a0:	bc5fe0ef          	jal	ra,264 <_putch>
    16a4:	00447793          	andi	a5,s0,4
    16a8:	03100513          	li	a0,49
    16ac:	00079463          	bnez	a5,16b4 <GpinTest+0x98>
    16b0:	03000513          	li	a0,48
    16b4:	bb1fe0ef          	jal	ra,264 <_putch>
    16b8:	00247793          	andi	a5,s0,2
    16bc:	03100513          	li	a0,49
    16c0:	00079463          	bnez	a5,16c8 <GpinTest+0xac>
    16c4:	03000513          	li	a0,48
    16c8:	b9dfe0ef          	jal	ra,264 <_putch>
    16cc:	00147413          	andi	s0,s0,1
    16d0:	03100513          	li	a0,49
    16d4:	00041463          	bnez	s0,16dc <GpinTest+0xc0>
    16d8:	03000513          	li	a0,48
    16dc:	00412403          	lw	s0,4(sp)
    16e0:	00812083          	lw	ra,8(sp)
    16e4:	00c10113          	addi	sp,sp,12
    16e8:	b7dfe06f          	j	264 <_putch>

000016ec <SPITest>:
    16ec:	ff410113          	addi	sp,sp,-12
    16f0:	000017b7          	lui	a5,0x1
    16f4:	00112423          	sw	ra,8(sp)
    16f8:	e0000737          	lui	a4,0xe0000
    16fc:	80878793          	addi	a5,a5,-2040 # 808 <_getch+0x24>
    1700:	02f72223          	sw	a5,36(a4) # e0000024 <_ebss+0xdfffd9f4>
    1704:	00200793          	li	a5,2
    1708:	02f72423          	sw	a5,40(a4)
    170c:	04100513          	li	a0,65
    1710:	ec0ff0ef          	jal	ra,dd0 <spixfer>
    1714:	03200513          	li	a0,50
    1718:	949fe0ef          	jal	ra,60 <delay_loop>
    171c:	ff1ff06f          	j	170c <SPITest+0x20>

00001720 <spiLoRAxfer>:
    1720:	e00007b7          	lui	a5,0xe0000
    1724:	02a7a823          	sw	a0,48(a5) # e0000030 <_ebss+0xdfffda00>
    1728:	e0000737          	lui	a4,0xe0000
    172c:	03472783          	lw	a5,52(a4) # e0000034 <_ebss+0xdfffda04>
    1730:	0017f793          	andi	a5,a5,1
    1734:	fe079ce3          	bnez	a5,172c <spiLoRAxfer+0xc>
    1738:	03072503          	lw	a0,48(a4)
    173c:	0ff57513          	zext.b	a0,a0
    1740:	00008067          	ret

00001744 <readLoRA>:
    1744:	ff410113          	addi	sp,sp,-12
    1748:	00112423          	sw	ra,8(sp)
    174c:	00812223          	sw	s0,4(sp)
    1750:	e0000437          	lui	s0,0xe0000
    1754:	02042c23          	sw	zero,56(s0) # e0000038 <_ebss+0xdfffda08>
    1758:	08056513          	ori	a0,a0,128
    175c:	fc5ff0ef          	jal	ra,1720 <spiLoRAxfer>
    1760:	00000513          	li	a0,0
    1764:	fbdff0ef          	jal	ra,1720 <spiLoRAxfer>
    1768:	00100793          	li	a5,1
    176c:	00812083          	lw	ra,8(sp)
    1770:	02f42c23          	sw	a5,56(s0)
    1774:	00412403          	lw	s0,4(sp)
    1778:	00c10113          	addi	sp,sp,12
    177c:	00008067          	ret

00001780 <writeLoRA>:
    1780:	ff410113          	addi	sp,sp,-12
    1784:	00112423          	sw	ra,8(sp)
    1788:	00812223          	sw	s0,4(sp)
    178c:	00912023          	sw	s1,0(sp)
    1790:	e00004b7          	lui	s1,0xe0000
    1794:	00050413          	mv	s0,a0
    1798:	0204ac23          	sw	zero,56(s1) # e0000038 <_ebss+0xdfffda08>
    179c:	00058513          	mv	a0,a1
    17a0:	f81ff0ef          	jal	ra,1720 <spiLoRAxfer>
    17a4:	00040513          	mv	a0,s0
    17a8:	f79ff0ef          	jal	ra,1720 <spiLoRAxfer>
    17ac:	00812083          	lw	ra,8(sp)
    17b0:	00412403          	lw	s0,4(sp)
    17b4:	00100793          	li	a5,1
    17b8:	02f4ac23          	sw	a5,56(s1)
    17bc:	00012483          	lw	s1,0(sp)
    17c0:	00c10113          	addi	sp,sp,12
    17c4:	00008067          	ret

000017c8 <readAllLoRaRegs>:
    17c8:	ff010113          	addi	sp,sp,-16
    17cc:	000027b7          	lui	a5,0x2
    17d0:	00812423          	sw	s0,8(sp)
    17d4:	00112623          	sw	ra,12(sp)
    17d8:	00912223          	sw	s1,4(sp)
    17dc:	5a878793          	addi	a5,a5,1448 # 25a8 <loraRegs>
    17e0:	00000413          	li	s0,0
    17e4:	00000493          	li	s1,0
    17e8:	00940533          	add	a0,s0,s1
    17ec:	0ff57513          	zext.b	a0,a0
    17f0:	00f12023          	sw	a5,0(sp)
    17f4:	f51ff0ef          	jal	ra,1744 <readLoRA>
    17f8:	00012783          	lw	a5,0(sp)
    17fc:	00978733          	add	a4,a5,s1
    1800:	00a70023          	sb	a0,0(a4)
    1804:	00148493          	addi	s1,s1,1
    1808:	01000713          	li	a4,16
    180c:	fce49ee3          	bne	s1,a4,17e8 <readAllLoRaRegs+0x20>
    1810:	01040413          	addi	s0,s0,16
    1814:	0ff47413          	zext.b	s0,s0
    1818:	08000713          	li	a4,128
    181c:	01078793          	addi	a5,a5,16
    1820:	fce412e3          	bne	s0,a4,17e4 <readAllLoRaRegs+0x1c>
    1824:	00c12083          	lw	ra,12(sp)
    1828:	00812403          	lw	s0,8(sp)
    182c:	00412483          	lw	s1,4(sp)
    1830:	01010113          	addi	sp,sp,16
    1834:	00008067          	ret

00001838 <printLoRaRegs>:
    1838:	ff010113          	addi	sp,sp,-16
    183c:	00812423          	sw	s0,8(sp)
    1840:	00002537          	lui	a0,0x2
    1844:	00002437          	lui	s0,0x2
    1848:	3b840413          	addi	s0,s0,952 # 23b8 <udat0>
    184c:	eb050513          	addi	a0,a0,-336 # 1eb0 <main+0x520>
    1850:	00912223          	sw	s1,4(sp)
    1854:	00112623          	sw	ra,12(sp)
    1858:	1f040493          	addi	s1,s0,496
    185c:	ee1fe0ef          	jal	ra,73c <_puts>
    1860:	27040413          	addi	s0,s0,624
    1864:	00000793          	li	a5,0
    1868:	00f486b3          	add	a3,s1,a5
    186c:	0006c583          	lbu	a1,0(a3) # 40000000 <_ebss+0x3fffd9d0>
    1870:	00f12023          	sw	a5,0(sp)
    1874:	000027b7          	lui	a5,0x2
    1878:	e5878513          	addi	a0,a5,-424 # 1e58 <main+0x4c8>
    187c:	ef5fe0ef          	jal	ra,770 <_printf>
    1880:	00012783          	lw	a5,0(sp)
    1884:	01000693          	li	a3,16
    1888:	00178793          	addi	a5,a5,1
    188c:	fcd79ee3          	bne	a5,a3,1868 <printLoRaRegs+0x30>
    1890:	00002537          	lui	a0,0x2
    1894:	1dc50513          	addi	a0,a0,476 # 21dc <main+0x84c>
    1898:	01048493          	addi	s1,s1,16
    189c:	ea1fe0ef          	jal	ra,73c <_puts>
    18a0:	fc8492e3          	bne	s1,s0,1864 <printLoRaRegs+0x2c>
    18a4:	00c12083          	lw	ra,12(sp)
    18a8:	00812403          	lw	s0,8(sp)
    18ac:	00412483          	lw	s1,4(sp)
    18b0:	01010113          	addi	sp,sp,16
    18b4:	00008067          	ret

000018b8 <__mulsi3>:
    18b8:	00050613          	mv	a2,a0
    18bc:	00000513          	li	a0,0
    18c0:	0015f693          	andi	a3,a1,1
    18c4:	00068463          	beqz	a3,18cc <__mulsi3+0x14>
    18c8:	00c50533          	add	a0,a0,a2
    18cc:	0015d593          	srli	a1,a1,0x1
    18d0:	00161613          	slli	a2,a2,0x1
    18d4:	fe0596e3          	bnez	a1,18c0 <__mulsi3+0x8>
    18d8:	00008067          	ret

000018dc <__divsi3>:
    18dc:	06054063          	bltz	a0,193c <__umodsi3+0x10>
    18e0:	0605c663          	bltz	a1,194c <__umodsi3+0x20>

000018e4 <__hidden___udivsi3>:
    18e4:	00058613          	mv	a2,a1
    18e8:	00050593          	mv	a1,a0
    18ec:	fff00513          	li	a0,-1
    18f0:	02060c63          	beqz	a2,1928 <__hidden___udivsi3+0x44>
    18f4:	00100693          	li	a3,1
    18f8:	00b67a63          	bgeu	a2,a1,190c <__hidden___udivsi3+0x28>
    18fc:	00c05863          	blez	a2,190c <__hidden___udivsi3+0x28>
    1900:	00161613          	slli	a2,a2,0x1
    1904:	00169693          	slli	a3,a3,0x1
    1908:	feb66ae3          	bltu	a2,a1,18fc <__hidden___udivsi3+0x18>
    190c:	00000513          	li	a0,0
    1910:	00c5e663          	bltu	a1,a2,191c <__hidden___udivsi3+0x38>
    1914:	40c585b3          	sub	a1,a1,a2
    1918:	00d56533          	or	a0,a0,a3
    191c:	0016d693          	srli	a3,a3,0x1
    1920:	00165613          	srli	a2,a2,0x1
    1924:	fe0696e3          	bnez	a3,1910 <__hidden___udivsi3+0x2c>
    1928:	00008067          	ret

0000192c <__umodsi3>:
    192c:	00008293          	mv	t0,ra
    1930:	fb5ff0ef          	jal	ra,18e4 <__hidden___udivsi3>
    1934:	00058513          	mv	a0,a1
    1938:	00028067          	jr	t0
    193c:	40a00533          	neg	a0,a0
    1940:	00b04863          	bgtz	a1,1950 <__umodsi3+0x24>
    1944:	40b005b3          	neg	a1,a1
    1948:	f9dff06f          	j	18e4 <__hidden___udivsi3>
    194c:	40b005b3          	neg	a1,a1
    1950:	00008293          	mv	t0,ra
    1954:	f91ff0ef          	jal	ra,18e4 <__hidden___udivsi3>
    1958:	40a00533          	neg	a0,a0
    195c:	00028067          	jr	t0

00001960 <__modsi3>:
    1960:	00008293          	mv	t0,ra
    1964:	0005ca63          	bltz	a1,1978 <__modsi3+0x18>
    1968:	00054c63          	bltz	a0,1980 <__modsi3+0x20>
    196c:	f79ff0ef          	jal	ra,18e4 <__hidden___udivsi3>
    1970:	00058513          	mv	a0,a1
    1974:	00028067          	jr	t0
    1978:	40b005b3          	neg	a1,a1
    197c:	fe0558e3          	bgez	a0,196c <__modsi3+0xc>
    1980:	40a00533          	neg	a0,a0
    1984:	f61ff0ef          	jal	ra,18e4 <__hidden___udivsi3>
    1988:	40b00533          	neg	a0,a1
    198c:	00028067          	jr	t0

00001990 <main>:
    1990:	ff010113          	addi	sp,sp,-16
    1994:	00112623          	sw	ra,12(sp)
    1998:	00812423          	sw	s0,8(sp)
    199c:	00912223          	sw	s1,4(sp)
    19a0:	09b00793          	li	a5,155
    19a4:	e00004b7          	lui	s1,0xe0000
    19a8:	00f4a223          	sw	a5,4(s1) # e0000004 <_ebss+0xdfffd9d4>
    19ac:	00092537          	lui	a0,0x92
    19b0:	75200793          	li	a5,1874
    19b4:	00f4a623          	sw	a5,12(s1)
    19b8:	7b650513          	addi	a0,a0,1974 # 927b6 <_ebss+0x90186>
    19bc:	ea4fe0ef          	jal	ra,60 <delay_loop>
    19c0:	0004c783          	lbu	a5,0(s1)
    19c4:	0084c783          	lbu	a5,8(s1)
    19c8:	00002437          	lui	s0,0x2
    19cc:	000017b7          	lui	a5,0x1
    19d0:	85078793          	addi	a5,a5,-1968 # 850 <irq0_handler>
    19d4:	0ef4a023          	sw	a5,224(s1)
    19d8:	06c00793          	li	a5,108
    19dc:	0ef4a223          	sw	a5,228(s1)
    19e0:	0d000793          	li	a5,208
    19e4:	0ef4a423          	sw	a5,232(s1)
    19e8:	12000793          	li	a5,288
    19ec:	0ef4a623          	sw	a5,236(s1)
    19f0:	19400793          	li	a5,404
    19f4:	0ef4a823          	sw	a5,240(s1)
    19f8:	21400793          	li	a5,532
    19fc:	0ef4aa23          	sw	a5,244(s1)
    1a00:	ecc40513          	addi	a0,s0,-308 # 1ecc <main+0x53c>
    1a04:	0c04a023          	sw	zero,192(s1)
    1a08:	d35fe0ef          	jal	ra,73c <_puts>
    1a0c:	00002537          	lui	a0,0x2
    1a10:	05850513          	addi	a0,a0,88 # 2058 <main+0x6c8>
    1a14:	d29fe0ef          	jal	ra,73c <_puts>
    1a18:	00000073          	ecall
    1a1c:	00100073          	ebreak
    1a20:	00800793          	li	a5,8
    1a24:	0cf4a023          	sw	a5,192(s1)
    1a28:	000017b7          	lui	a5,0x1
    1a2c:	80878793          	addi	a5,a5,-2040 # 808 <_getch+0x24>
    1a30:	02f4a223          	sw	a5,36(s1)
    1a34:	e38ff0ef          	jal	ra,106c <startBME680>
    1a38:	000017b7          	lui	a5,0x1
    1a3c:	80878793          	addi	a5,a5,-2040 # 808 <_getch+0x24>
    1a40:	02f4aa23          	sw	a5,52(s1)
    1a44:	0112b7b7          	lui	a5,0x112b
    1a48:	08048023          	sb	zero,128(s1)
    1a4c:	88078793          	addi	a5,a5,-1920 # 112a880 <_ebss+0x1128250>
    1a50:	06f4a023          	sw	a5,96(s1)
    1a54:	000024b7          	lui	s1,0x2
    1a58:	06448513          	addi	a0,s1,100 # 2064 <main+0x6d4>
    1a5c:	ce1fe0ef          	jal	ra,73c <_puts>
    1a60:	00002537          	lui	a0,0x2
    1a64:	07450513          	addi	a0,a0,116 # 2074 <main+0x6e4>
    1a68:	cd5fe0ef          	jal	ra,73c <_puts>
    1a6c:	00002537          	lui	a0,0x2
    1a70:	0a450513          	addi	a0,a0,164 # 20a4 <main+0x714>
    1a74:	cc9fe0ef          	jal	ra,73c <_puts>
    1a78:	00002537          	lui	a0,0x2
    1a7c:	0d050513          	addi	a0,a0,208 # 20d0 <main+0x740>
    1a80:	cbdfe0ef          	jal	ra,73c <_puts>
    1a84:	00002537          	lui	a0,0x2
    1a88:	0f050513          	addi	a0,a0,240 # 20f0 <main+0x760>
    1a8c:	cb1fe0ef          	jal	ra,73c <_puts>
    1a90:	00002537          	lui	a0,0x2
    1a94:	12050513          	addi	a0,a0,288 # 2120 <main+0x790>
    1a98:	ca5fe0ef          	jal	ra,73c <_puts>
    1a9c:	00002537          	lui	a0,0x2
    1aa0:	15050513          	addi	a0,a0,336 # 2150 <main+0x7c0>
    1aa4:	c99fe0ef          	jal	ra,73c <_puts>
    1aa8:	00002537          	lui	a0,0x2
    1aac:	18450513          	addi	a0,a0,388 # 2184 <main+0x7f4>
    1ab0:	c8dfe0ef          	jal	ra,73c <_puts>
    1ab4:	00002537          	lui	a0,0x2
    1ab8:	1b050513          	addi	a0,a0,432 # 21b0 <main+0x820>
    1abc:	c81fe0ef          	jal	ra,73c <_puts>
    1ac0:	00002537          	lui	a0,0x2
    1ac4:	1e050513          	addi	a0,a0,480 # 21e0 <main+0x850>
    1ac8:	c75fe0ef          	jal	ra,73c <_puts>
    1acc:	00002537          	lui	a0,0x2
    1ad0:	21450513          	addi	a0,a0,532 # 2214 <main+0x884>
    1ad4:	c69fe0ef          	jal	ra,73c <_puts>
    1ad8:	00002537          	lui	a0,0x2
    1adc:	26850513          	addi	a0,a0,616 # 2268 <main+0x8d8>
    1ae0:	c5dfe0ef          	jal	ra,73c <_puts>
    1ae4:	00002537          	lui	a0,0x2
    1ae8:	29450513          	addi	a0,a0,660 # 2294 <main+0x904>
    1aec:	c51fe0ef          	jal	ra,73c <_puts>
    1af0:	00002537          	lui	a0,0x2
    1af4:	2bc50513          	addi	a0,a0,700 # 22bc <main+0x92c>
    1af8:	c45fe0ef          	jal	ra,73c <_puts>
    1afc:	00002537          	lui	a0,0x2
    1b00:	2d850513          	addi	a0,a0,728 # 22d8 <main+0x948>
    1b04:	c39fe0ef          	jal	ra,73c <_puts>
    1b08:	00002537          	lui	a0,0x2
    1b0c:	2f450513          	addi	a0,a0,756 # 22f4 <main+0x964>
    1b10:	c2dfe0ef          	jal	ra,73c <_puts>
    1b14:	00002537          	lui	a0,0x2
    1b18:	32850513          	addi	a0,a0,808 # 2328 <main+0x998>
    1b1c:	c21fe0ef          	jal	ra,73c <_puts>
    1b20:	e0000737          	lui	a4,0xe0000
    1b24:	0c072783          	lw	a5,192(a4) # e00000c0 <_ebss+0xdfffda90>
    1b28:	0027e793          	ori	a5,a5,2
    1b2c:	0cf72023          	sw	a5,192(a4)
    1b30:	cb5fe0ef          	jal	ra,7e4 <_getch>
    1b34:	00800693          	li	a3,8
    1b38:	e0000737          	lui	a4,0xe0000
    1b3c:	0cd72023          	sw	a3,192(a4) # e00000c0 <_ebss+0xdfffda90>
    1b40:	fdf50713          	addi	a4,a0,-33
    1b44:	0ff77713          	zext.b	a4,a4
    1b48:	05d00613          	li	a2,93
    1b4c:	000026b7          	lui	a3,0x2
    1b50:	00e67e63          	bgeu	a2,a4,1b6c <main+0x1dc>
    1b54:	1dc68513          	addi	a0,a3,476 # 21dc <main+0x84c>
    1b58:	be5fe0ef          	jal	ra,73c <_puts>
    1b5c:	00002537          	lui	a0,0x2
    1b60:	39050513          	addi	a0,a0,912 # 2390 <main+0xa00>
    1b64:	bd9fe0ef          	jal	ra,73c <_puts>
    1b68:	ef1ff06f          	j	1a58 <main+0xc8>
    1b6c:	00a12023          	sw	a0,0(sp)
    1b70:	ef4fe0ef          	jal	ra,264 <_putch>
    1b74:	000026b7          	lui	a3,0x2
    1b78:	1dc68513          	addi	a0,a3,476 # 21dc <main+0x84c>
    1b7c:	bc1fe0ef          	jal	ra,73c <_puts>
    1b80:	00012783          	lw	a5,0(sp)
    1b84:	03900713          	li	a4,57
    1b88:	02f76a63          	bltu	a4,a5,1bbc <main+0x22c>
    1b8c:	02f00713          	li	a4,47
    1b90:	fcf776e3          	bgeu	a4,a5,1b5c <main+0x1cc>
    1b94:	fd078793          	addi	a5,a5,-48
    1b98:	0ff7f793          	zext.b	a5,a5
    1b9c:	00900713          	li	a4,9
    1ba0:	faf76ee3          	bltu	a4,a5,1b5c <main+0x1cc>
    1ba4:	00002737          	lui	a4,0x2
    1ba8:	00279793          	slli	a5,a5,0x2
    1bac:	c8870713          	addi	a4,a4,-888 # 1c88 <main+0x2f8>
    1bb0:	00e787b3          	add	a5,a5,a4
    1bb4:	0007a783          	lw	a5,0(a5)
    1bb8:	00078067          	jr	a5
    1bbc:	f9978793          	addi	a5,a5,-103
    1bc0:	0ff7f793          	zext.b	a5,a5
    1bc4:	01300713          	li	a4,19
    1bc8:	f8f76ae3          	bltu	a4,a5,1b5c <main+0x1cc>
    1bcc:	00002737          	lui	a4,0x2
    1bd0:	00279793          	slli	a5,a5,0x2
    1bd4:	cb070713          	addi	a4,a4,-848 # 1cb0 <main+0x320>
    1bd8:	00e787b3          	add	a5,a5,a4
    1bdc:	0007a783          	lw	a5,0(a5)
    1be0:	00078067          	jr	a5
    1be4:	be5ff0ef          	jal	ra,17c8 <readAllLoRaRegs>
    1be8:	c51ff0ef          	jal	ra,1838 <printLoRaRegs>
    1bec:	005b9537          	lui	a0,0x5b9
    1bf0:	d7650513          	addi	a0,a0,-650 # 5b8d76 <_ebss+0x5b6746>
    1bf4:	c6cfe0ef          	jal	ra,60 <delay_loop>
    1bf8:	00002537          	lui	a0,0x2
    1bfc:	3a850513          	addi	a0,a0,936 # 23a8 <main+0xa18>
    1c00:	f65ff06f          	j	1b64 <main+0x1d4>
    1c04:	a7cff0ef          	jal	ra,e80 <readAllBMERegs>
    1c08:	b50ff0ef          	jal	ra,f58 <printBMERegs>
    1c0c:	d00ff0ef          	jal	ra,110c <measureBME680>
    1c10:	fddff06f          	j	1bec <main+0x25c>
    1c14:	00002537          	lui	a0,0x2
    1c18:	34450513          	addi	a0,a0,836 # 2344 <main+0x9b4>
    1c1c:	b21fe0ef          	jal	ra,73c <_puts>
    1c20:	fcdff06f          	j	1bec <main+0x25c>
    1c24:	00000067          	jr	zero # 0 <reset_vec>
    1c28:	fc5ff06f          	j	1bec <main+0x25c>
    1c2c:	00002537          	lui	a0,0x2
    1c30:	37050513          	addi	a0,a0,880 # 2370 <main+0x9e0>
    1c34:	b09fe0ef          	jal	ra,73c <_puts>
    1c38:	e0000737          	lui	a4,0xe0000
    1c3c:	00800793          	li	a5,8
    1c40:	0cf72023          	sw	a5,192(a4) # e00000c0 <_ebss+0xdfffda90>
    1c44:	008957b7          	lui	a5,0x895
    1c48:	44078793          	addi	a5,a5,1088 # 895440 <_ebss+0x892e10>
    1c4c:	06f72023          	sw	a5,96(a4)
    1c50:	0000006f          	j	1c50 <main+0x2c0>
    1c54:	e00007b7          	lui	a5,0xe0000
    1c58:	01000713          	li	a4,16
    1c5c:	0ce7a023          	sw	a4,192(a5) # e00000c0 <_ebss+0xdfffda90>
    1c60:	e9dfe0ef          	jal	ra,afc <getGPSFrame>
    1c64:	f89ff06f          	j	1bec <main+0x25c>
    1c68:	e00007b7          	lui	a5,0xe0000
    1c6c:	0607a583          	lw	a1,96(a5) # e0000060 <_ebss+0xdfffda30>
    1c70:	00002537          	lui	a0,0x2
    1c74:	38450513          	addi	a0,a0,900 # 2384 <main+0x9f4>
    1c78:	af9fe0ef          	jal	ra,770 <_printf>
    1c7c:	f71ff06f          	j	1bec <main+0x25c>
    1c80:	ecc40513          	addi	a0,s0,-308
    1c84:	f99ff06f          	j	1c1c <main+0x28c>
    1c88:	1c14                	.2byte	0x1c14
    1c8a:	0000                	.2byte	0x0
    1c8c:	1c80                	.2byte	0x1c80
    1c8e:	0000                	.2byte	0x0
    1c90:	1c14                	.2byte	0x1c14
    1c92:	0000                	.2byte	0x0
    1c94:	1b5c                	.2byte	0x1b5c
    1c96:	0000                	.2byte	0x0
    1c98:	1b5c                	.2byte	0x1b5c
    1c9a:	0000                	.2byte	0x0
    1c9c:	1c04                	.2byte	0x1c04
    1c9e:	0000                	.2byte	0x0
    1ca0:	1c14                	.2byte	0x1c14
    1ca2:	0000                	.2byte	0x0
    1ca4:	1c14                	.2byte	0x1c14
    1ca6:	0000                	.2byte	0x0
    1ca8:	1c14                	.2byte	0x1c14
    1caa:	0000                	.2byte	0x0
    1cac:	1c14                	.2byte	0x1c14
    1cae:	0000                	.2byte	0x0
    1cb0:	1c54                	.2byte	0x1c54
    1cb2:	0000                	.2byte	0x0
    1cb4:	1b5c                	.2byte	0x1b5c
    1cb6:	0000                	.2byte	0x0
    1cb8:	1b5c                	.2byte	0x1b5c
    1cba:	0000                	.2byte	0x0
    1cbc:	1b5c                	.2byte	0x1b5c
    1cbe:	0000                	.2byte	0x0
    1cc0:	1c14                	.2byte	0x1c14
    1cc2:	0000                	.2byte	0x0
    1cc4:	1c68                	.2byte	0x1c68
    1cc6:	0000                	.2byte	0x0
    1cc8:	1b5c                	.2byte	0x1b5c
    1cca:	0000                	.2byte	0x0
    1ccc:	1b5c                	.2byte	0x1b5c
    1cce:	0000                	.2byte	0x0
    1cd0:	1b5c                	.2byte	0x1b5c
    1cd2:	0000                	.2byte	0x0
    1cd4:	1b5c                	.2byte	0x1b5c
    1cd6:	0000                	.2byte	0x0
    1cd8:	1c24                	.2byte	0x1c24
    1cda:	0000                	.2byte	0x0
    1cdc:	1c14                	.2byte	0x1c14
    1cde:	0000                	.2byte	0x0
    1ce0:	1b5c                	.2byte	0x1b5c
    1ce2:	0000                	.2byte	0x0
    1ce4:	1c2c                	.2byte	0x1c2c
    1ce6:	0000                	.2byte	0x0
    1ce8:	1b5c                	.2byte	0x1b5c
    1cea:	0000                	.2byte	0x0
    1cec:	1b5c                	.2byte	0x1b5c
    1cee:	0000                	.2byte	0x0
    1cf0:	1b5c                	.2byte	0x1b5c
    1cf2:	0000                	.2byte	0x0
    1cf4:	1bec                	.2byte	0x1bec
    1cf6:	0000                	.2byte	0x0
    1cf8:	1b5c                	.2byte	0x1b5c
    1cfa:	0000                	.2byte	0x0
    1cfc:	1be4                	.2byte	0x1be4
    1cfe:	0000                	.2byte	0x0
    1d00:	0000                	.2byte	0x0
    1d02:	0000                	.2byte	0x0
    1d04:	6e28                	.2byte	0x6e28
    1d06:	6c75                	.2byte	0x6c75
    1d08:	296c                	.2byte	0x296c
    1d0a:	0000                	.2byte	0x0
    1d0c:	540a                	.2byte	0x540a
    1d0e:	4152                	.2byte	0x4152
    1d10:	2050                	.2byte	0x2050
    1d12:	7461                	.2byte	0x7461
    1d14:	3020                	.2byte	0x3020
    1d16:	2578                	.2byte	0x2578
    1d18:	0a78                	.2byte	0xa78
    1d1a:	0000                	.2byte	0x0
    1d1c:	6425                	.2byte	0x6425
    1d1e:	6425                	.2byte	0x6425
    1d20:	6425                	.2byte	0x6425
    1d22:	6425                	.2byte	0x6425
    1d24:	2520                	.2byte	0x2520
    1d26:	2564                	.2byte	0x2564
    1d28:	2564                	.2byte	0x2564
    1d2a:	2564                	.2byte	0x2564
    1d2c:	2064                	.2byte	0x2064
    1d2e:	7c7c                	.2byte	0x7c7c
    1d30:	2520                	.2byte	0x2520
    1d32:	0a78                	.2byte	0xa78
    1d34:	0000                	.2byte	0x0
    1d36:	0000                	.2byte	0x0
    1d38:	4724                	.2byte	0x4724
    1d3a:	474e                	.2byte	0x474e
    1d3c:	00004147          	.4byte	0x4147
    1d40:	2d2d                	.2byte	0x2d2d
    1d42:	2d2d                	.2byte	0x2d2d
    1d44:	2d2d                	.2byte	0x2d2d
    1d46:	2d2d                	.2byte	0x2d2d
    1d48:	2d2d                	.2byte	0x2d2d
    1d4a:	2d2d                	.2byte	0x2d2d
    1d4c:	2d2d                	.2byte	0x2d2d
    1d4e:	492d                	.2byte	0x492d
    1d50:	464e                	.2byte	0x464e
    1d52:	414d524f          	.4byte	0x414d524f
    1d56:	4e4f4943          	.4byte	0x4e4f4943
    1d5a:	4720                	.2byte	0x4720
    1d5c:	5350                	.2byte	0x5350
    1d5e:	2d2d                	.2byte	0x2d2d
    1d60:	2d2d                	.2byte	0x2d2d
    1d62:	2d2d                	.2byte	0x2d2d
    1d64:	2d2d                	.2byte	0x2d2d
    1d66:	2d2d                	.2byte	0x2d2d
    1d68:	2d2d                	.2byte	0x2d2d
    1d6a:	2d2d                	.2byte	0x2d2d
    1d6c:	0a2d                	.2byte	0xa2d
    1d6e:	0000                	.2byte	0x0
    1d70:	5455                	.2byte	0x5455
    1d72:	69542043          	.4byte	0x69542043
    1d76:	656d                	.2byte	0x656d
    1d78:	2020                	.2byte	0x2020
    1d7a:	093a                	.2byte	0x93a
    1d7c:	0000                	.2byte	0x0
    1d7e:	0000                	.2byte	0x0
    1d80:	6f68                	.2byte	0x6f68
    1d82:	6172                	.2byte	0x6172
    1d84:	203a                	.2byte	0x203a
    1d86:	0000                	.2byte	0x0
    1d88:	2020                	.2byte	0x2020
    1d8a:	696d                	.2byte	0x696d
    1d8c:	756e                	.2byte	0x756e
    1d8e:	6f74                	.2byte	0x6f74
    1d90:	00203a73          	.4byte	0x203a73
    1d94:	2020                	.2byte	0x2020
    1d96:	75676573          	.4byte	0x75676573
    1d9a:	646e                	.2byte	0x646e
    1d9c:	203a736f          	jal	t1,a979e <_ebss+0xa716e>
    1da0:	0000                	.2byte	0x0
    1da2:	0000                	.2byte	0x0
    1da4:	614c                	.2byte	0x614c
    1da6:	6974                	.2byte	0x6974
    1da8:	7574                	.2byte	0x7574
    1daa:	6564                	.2byte	0x6564
    1dac:	2020                	.2byte	0x2020
    1dae:	093a                	.2byte	0x93a
    1db0:	0000                	.2byte	0x0
    1db2:	0000                	.2byte	0x0
    1db4:	6f4c                	.2byte	0x6f4c
    1db6:	676e                	.2byte	0x676e
    1db8:	7469                	.2byte	0x7469
    1dba:	6475                	.2byte	0x6475
    1dbc:	2065                	.2byte	0x2065
    1dbe:	093a                	.2byte	0x93a
    1dc0:	0000                	.2byte	0x0
    1dc2:	0000                	.2byte	0x0
    1dc4:	6c41                	.2byte	0x6c41
    1dc6:	6974                	.2byte	0x6974
    1dc8:	7574                	.2byte	0x7574
    1dca:	6564                	.2byte	0x6564
    1dcc:	2020                	.2byte	0x2020
    1dce:	093a                	.2byte	0x93a
    1dd0:	0000                	.2byte	0x0
    1dd2:	0000                	.2byte	0x0
    1dd4:	65746153          	.4byte	0x65746153
    1dd8:	6c6c                	.2byte	0x6c6c
    1dda:	7469                	.2byte	0x7469
    1ddc:	7365                	.2byte	0x7365
    1dde:	093a                	.2byte	0x93a
    1de0:	0000                	.2byte	0x0
    1de2:	0000                	.2byte	0x0
    1de4:	4649                	.2byte	0x4649
    1de6:	0031                	.2byte	0x31
    1de8:	4724                	.2byte	0x4724
    1dea:	4750                	.2byte	0x4750
    1dec:	00004147          	.4byte	0x4147
    1df0:	4724                	.2byte	0x4724
    1df2:	524e                	.2byte	0x524e
    1df4:	434d                	.2byte	0x434d
    1df6:	0000                	.2byte	0x0
    1df8:	6144                	.2byte	0x6144
    1dfa:	6574                	.2byte	0x6574
    1dfc:	2020                	.2byte	0x2020
    1dfe:	2020                	.2byte	0x2020
    1e00:	2020                	.2byte	0x2020
    1e02:	093a                	.2byte	0x93a
    1e04:	0000                	.2byte	0x0
    1e06:	0000                	.2byte	0x0
    1e08:	6964                	.2byte	0x6964
    1e0a:	3a61                	.2byte	0x3a61
    1e0c:	0020                	.2byte	0x20
    1e0e:	0000                	.2byte	0x0
    1e10:	2020                	.2byte	0x2020
    1e12:	656d                	.2byte	0x656d
    1e14:	00203a73          	.4byte	0x203a73
    1e18:	2020                	.2byte	0x2020
    1e1a:	6e61                	.2byte	0x6e61
    1e1c:	6f69                	.2byte	0x6f69
    1e1e:	203a                	.2byte	0x203a
    1e20:	0000                	.2byte	0x0
    1e22:	0000                	.2byte	0x0
    1e24:	4724                	.2byte	0x4724
    1e26:	5250                	.2byte	0x5250
    1e28:	434d                	.2byte	0x434d
    1e2a:	0000                	.2byte	0x0
    1e2c:	694c                	.2byte	0x694c
    1e2e:	706d                	.2byte	0x706d
    1e30:	6169                	.2byte	0x6169
    1e32:	0000                	.2byte	0x0
    1e34:	474c4153          	.4byte	0x474c4153
    1e38:	0000004f          	.4byte	0x4f
    1e3c:	6552                	.2byte	0x6552
    1e3e:	74736967          	.4byte	0x74736967
    1e42:	6f72                	.2byte	0x6f72
    1e44:	65642073          	.4byte	0x65642073
    1e48:	206c                	.2byte	0x206c
    1e4a:	736e6573          	.4byte	0x736e6573
    1e4e:	4220726f          	jal	tp,9270 <_ebss+0x6c40>
    1e52:	454d                	.2byte	0x454d
    1e54:	0a3a                	.2byte	0xa3a
    1e56:	0000                	.2byte	0x0
    1e58:	3025                	.2byte	0x3025
    1e5a:	7832                	.2byte	0x7832
    1e5c:	0020                	.2byte	0x20
    1e5e:	0000                	.2byte	0x0
    1e60:	6554                	.2byte	0x6554
    1e62:	706d                	.2byte	0x706d
    1e64:	7265                	.2byte	0x7265
    1e66:	7461                	.2byte	0x7461
    1e68:	7275                	.2byte	0x7275
    1e6a:	3a61                	.2byte	0x3a61
    1e6c:	2520                	.2byte	0x2520
    1e6e:	2564                	.2byte	0x2564
    1e70:	000a4363          	bltz	s4,1e76 <main+0x4e6>
    1e74:	6574                	.2byte	0x6574
    1e76:	706d                	.2byte	0x706d
    1e78:	615f 6364 203a      	.byte	0x5f, 0x61, 0x64, 0x63, 0x3a, 0x20
    1e7e:	6425                	.2byte	0x6425
    1e80:	006e                	.2byte	0x6e
    1e82:	0000                	.2byte	0x0
    1e84:	7250                	.2byte	0x7250
    1e86:	7365                	.2byte	0x7365
    1e88:	6f69                	.2byte	0x6f69
    1e8a:	3a6e                	.2byte	0x3a6e
    1e8c:	2520                	.2byte	0x2520
    1e8e:	2064                	.2byte	0x2064
    1e90:	5068                	.2byte	0x5068
    1e92:	7361                	.2byte	0x7361
    1e94:	0a6c6163          	bltu	s8,t1,1f36 <main+0x5a6>
    1e98:	0000                	.2byte	0x0
    1e9a:	0000                	.2byte	0x0
    1e9c:	7548                	.2byte	0x7548
    1e9e:	656d                	.2byte	0x656d
    1ea0:	6164                	.2byte	0x6164
    1ea2:	3a64                	.2byte	0x3a64
    1ea4:	2520                	.2byte	0x2520
    1ea6:	2564                	.2byte	0x2564
    1ea8:	00000a63          	beqz	zero,1ebc <main+0x52c>
    1eac:	0055                	.2byte	0x55
    1eae:	0000                	.2byte	0x0
    1eb0:	6552                	.2byte	0x6552
    1eb2:	74736967          	.4byte	0x74736967
    1eb6:	6f72                	.2byte	0x6f72
    1eb8:	65642073          	.4byte	0x65642073
    1ebc:	206c                	.2byte	0x206c
    1ebe:	6f6d                	.2byte	0x6f6d
    1ec0:	7564                	.2byte	0x7564
    1ec2:	6f6c                	.2byte	0x6f6c
    1ec4:	4c20                	.2byte	0x4c20
    1ec6:	3a61526f          	jal	tp,1726c <_ebss+0x14c3c>
    1eca:	000a                	.2byte	0xa
    1ecc:	0a0a                	.2byte	0xa0a
    1ece:	380a                	.2byte	0x380a
    1ed0:	3838                	.2byte	0x3838
    1ed2:	2020                	.2byte	0x2020
    1ed4:	2020                	.2byte	0x2020
    1ed6:	2020                	.2byte	0x2020
    1ed8:	2020                	.2byte	0x2020
    1eda:	2020                	.2byte	0x2020
    1edc:	2020                	.2byte	0x2020
    1ede:	2020                	.2byte	0x2020
    1ee0:	2020                	.2byte	0x2020
    1ee2:	3838                	.2byte	0x3838
    1ee4:	3838                	.2byte	0x3838
    1ee6:	3838                	.2byte	0x3838
    1ee8:	6238                	.2byte	0x6238
    1eea:	202e                	.2byte	0x202e
    1eec:	3820                	.2byte	0x3820
    1eee:	3838                	.2byte	0x3838
    1ef0:	2020                	.2byte	0x2020
    1ef2:	2020                	.2byte	0x2020
    1ef4:	3820                	.2byte	0x3820
    1ef6:	3838                	.2byte	0x3838
    1ef8:	380a                	.2byte	0x380a
    1efa:	3838                	.2byte	0x3838
    1efc:	2020                	.2byte	0x2020
    1efe:	2020                	.2byte	0x2020
    1f00:	2020                	.2byte	0x2020
    1f02:	2020                	.2byte	0x2020
    1f04:	2020                	.2byte	0x2020
    1f06:	2020                	.2byte	0x2020
    1f08:	2020                	.2byte	0x2020
    1f0a:	2020                	.2byte	0x2020
    1f0c:	3838                	.2byte	0x3838
    1f0e:	2038                	.2byte	0x2038
    1f10:	2020                	.2byte	0x2020
    1f12:	3859                	.2byte	0x3859
    1f14:	6238                	.2byte	0x6238
    1f16:	3820                	.2byte	0x3820
    1f18:	3838                	.2byte	0x3838
    1f1a:	2020                	.2byte	0x2020
    1f1c:	2020                	.2byte	0x2020
    1f1e:	3820                	.2byte	0x3820
    1f20:	3838                	.2byte	0x3838
    1f22:	380a                	.2byte	0x380a
    1f24:	3838                	.2byte	0x3838
    1f26:	2020                	.2byte	0x2020
    1f28:	2020                	.2byte	0x2020
    1f2a:	2020                	.2byte	0x2020
    1f2c:	2020                	.2byte	0x2020
    1f2e:	2020                	.2byte	0x2020
    1f30:	2020                	.2byte	0x2020
    1f32:	2020                	.2byte	0x2020
    1f34:	2020                	.2byte	0x2020
    1f36:	3838                	.2byte	0x3838
    1f38:	2038                	.2byte	0x2038
    1f3a:	2020                	.2byte	0x2020
    1f3c:	3820                	.2byte	0x3820
    1f3e:	3838                	.2byte	0x3838
    1f40:	3820                	.2byte	0x3820
    1f42:	3838                	.2byte	0x3838
    1f44:	2020                	.2byte	0x2020
    1f46:	2020                	.2byte	0x2020
    1f48:	3820                	.2byte	0x3820
    1f4a:	3838                	.2byte	0x3838
    1f4c:	380a                	.2byte	0x380a
    1f4e:	3838                	.2byte	0x3838
    1f50:	2020                	.2byte	0x2020
    1f52:	2020                	.2byte	0x2020
    1f54:	2020                	.2byte	0x2020
    1f56:	2020                	.2byte	0x2020
    1f58:	3838                	.2byte	0x3838
    1f5a:	3838                	.2byte	0x3838
    1f5c:	2e62                	.2byte	0x2e62
    1f5e:	2020                	.2byte	0x2020
    1f60:	3838                	.2byte	0x3838
    1f62:	2038                	.2byte	0x2038
    1f64:	2020                	.2byte	0x2020
    1f66:	3864                	.2byte	0x3864
    1f68:	5038                	.2byte	0x5038
    1f6a:	5920                	.2byte	0x5920
    1f6c:	3838                	.2byte	0x3838
    1f6e:	2062                	.2byte	0x2062
    1f70:	2020                	.2byte	0x2020
    1f72:	3864                	.2byte	0x3864
    1f74:	5038                	.2byte	0x5038
    1f76:	3820                	.2byte	0x3820
    1f78:	3838                	.2byte	0x3838
    1f7a:	6238                	.2byte	0x6238
    1f7c:	0a2e                	.2byte	0xa2e
    1f7e:	3838                	.2byte	0x3838
    1f80:	2038                	.2byte	0x2038
    1f82:	2020                	.2byte	0x2020
    1f84:	2020                	.2byte	0x2020
    1f86:	2020                	.2byte	0x2020
    1f88:	2020                	.2byte	0x2020
    1f8a:	2020                	.2byte	0x2020
    1f8c:	62383827          	.4byte	0x62383827
    1f90:	3820                	.2byte	0x3820
    1f92:	3838                	.2byte	0x3838
    1f94:	3838                	.2byte	0x3838
    1f96:	3838                	.2byte	0x3838
    1f98:	2750                	.2byte	0x2750
    1f9a:	2020                	.2byte	0x2020
    1f9c:	5920                	.2byte	0x5920
    1f9e:	3838                	.2byte	0x3838
    1fa0:	2062                	.2byte	0x2062
    1fa2:	3864                	.2byte	0x3864
    1fa4:	5038                	.2byte	0x5038
    1fa6:	2020                	.2byte	0x2020
    1fa8:	2020                	.2byte	0x2020
    1faa:	2720                	.2byte	0x2720
    1fac:	3838                	.2byte	0x3838
    1fae:	0a62                	.2byte	0xa62
    1fb0:	3838                	.2byte	0x3838
    1fb2:	2038                	.2byte	0x2038
    1fb4:	2020                	.2byte	0x2020
    1fb6:	2020                	.2byte	0x2020
    1fb8:	2020                	.2byte	0x2020
    1fba:	642e                	.2byte	0x642e
    1fbc:	3838                	.2byte	0x3838
    1fbe:	3838                	.2byte	0x3838
    1fc0:	3838                	.2byte	0x3838
    1fc2:	3820                	.2byte	0x3820
    1fc4:	3838                	.2byte	0x3838
    1fc6:	5420                	.2byte	0x5420
    1fc8:	3838                	.2byte	0x3838
    1fca:	2062                	.2byte	0x2062
    1fcc:	2020                	.2byte	0x2020
    1fce:	2020                	.2byte	0x2020
    1fd0:	3859                	.2byte	0x3859
    1fd2:	6f38                	.2byte	0x6f38
    1fd4:	3838                	.2byte	0x3838
    1fd6:	2050                	.2byte	0x2050
    1fd8:	2e20                	.2byte	0x2e20
    1fda:	3864                	.2byte	0x3864
    1fdc:	3838                	.2byte	0x3838
    1fde:	3838                	.2byte	0x3838
    1fe0:	0a38                	.2byte	0xa38
    1fe2:	3838                	.2byte	0x3838
    1fe4:	3838                	.2byte	0x3838
    1fe6:	3838                	.2byte	0x3838
    1fe8:	3838                	.2byte	0x3838
    1fea:	2038                	.2byte	0x2038
    1fec:	3838                	.2byte	0x3838
    1fee:	2038                	.2byte	0x2038
    1ff0:	3820                	.2byte	0x3820
    1ff2:	3838                	.2byte	0x3838
    1ff4:	3820                	.2byte	0x3820
    1ff6:	3838                	.2byte	0x3838
    1ff8:	2020                	.2byte	0x2020
    1ffa:	3854                	.2byte	0x3854
    1ffc:	6238                	.2byte	0x6238
    1ffe:	2020                	.2byte	0x2020
    2000:	2020                	.2byte	0x2020
    2002:	5920                	.2byte	0x5920
    2004:	3838                	.2byte	0x3838
    2006:	5038                	.2byte	0x5038
    2008:	2020                	.2byte	0x2020
    200a:	3820                	.2byte	0x3820
    200c:	3838                	.2byte	0x3838
    200e:	2020                	.2byte	0x2020
    2010:	3838                	.2byte	0x3838
    2012:	0a38                	.2byte	0xa38
    2014:	3838                	.2byte	0x3838
    2016:	3838                	.2byte	0x3838
    2018:	3838                	.2byte	0x3838
    201a:	3838                	.2byte	0x3838
    201c:	2038                	.2byte	0x2038
    201e:	38385927          	.4byte	0x38385927
    2022:	3838                	.2byte	0x3838
    2024:	3838                	.2byte	0x3838
    2026:	3820                	.2byte	0x3820
    2028:	3838                	.2byte	0x3838
    202a:	2020                	.2byte	0x2020
    202c:	5420                	.2byte	0x5420
    202e:	3838                	.2byte	0x3838
    2030:	2062                	.2byte	0x2062
    2032:	2020                	.2byte	0x2020
    2034:	2020                	.2byte	0x2020
    2036:	3859                	.2byte	0x3859
    2038:	2050                	.2byte	0x2050
    203a:	2020                	.2byte	0x2020
    203c:	2720                	.2byte	0x2720
    203e:	3859                	.2byte	0x3859
    2040:	3838                	.2byte	0x3838
    2042:	3838                	.2byte	0x3838
    2044:	0a38                	.2byte	0xa38
    2046:	490a                	.2byte	0x490a
    2048:	7374                	.2byte	0x7374
    204a:	4120                	.2byte	0x4120
    204c:	696c                	.2byte	0x696c
    204e:	6576                	.2byte	0x6576
    2050:	3a20                	.2byte	0x3a20
    2052:	292d                	.2byte	0x292d
    2054:	0a0a                	.2byte	0xa0a
    2056:	0000                	.2byte	0x0
    2058:	6f48                	.2byte	0x6f48
    205a:	616c                	.2byte	0x616c
    205c:	6d20                	.2byte	0x6d20
    205e:	6e75                	.2byte	0x6e75
    2060:	6f64                	.2byte	0x6f64
    2062:	000a                	.2byte	0xa
    2064:	2d0a                	.2byte	0x2d0a
    2066:	2d2d                	.2byte	0x2d2d
    2068:	5420                	.2byte	0x5420
    206a:	5345                	.2byte	0x5345
    206c:	2054                	.2byte	0x2054
    206e:	2d2d                	.2byte	0x2d2d
    2070:	0a2d                	.2byte	0xa2d
    2072:	0000                	.2byte	0x0
    2074:	202d                	.2byte	0x202d
    2076:	3a7a                	.2byte	0x3a7a
    2078:	4c20                	.2byte	0x4c20
    207a:	6565                	.2byte	0x6565
    207c:	6c20                	.2byte	0x6c20
    207e:	7220736f          	jal	t1,97a0 <_ebss+0x7170>
    2082:	6765                	.2byte	0x6765
    2084:	7369                	.2byte	0x7369
    2086:	7274                	.2byte	0x7274
    2088:	6420736f          	jal	t1,96ca <_ebss+0x709a>
    208c:	6c65                	.2byte	0x6c65
    208e:	7420                	.2byte	0x7420
    2090:	6172                	.2byte	0x6172
    2092:	736e                	.2byte	0x736e
    2094:	74706563          	bltu	zero,t2,27de <_ebss+0x1ae>
    2098:	4c20726f          	jal	tp,955a <_ebss+0x6f2a>
    209c:	0a61526f          	jal	tp,17142 <_ebss+0x14b12>
    20a0:	0000                	.2byte	0x0
    20a2:	0000                	.2byte	0x0
    20a4:	3e2d                	.2byte	0x3e2d
    20a6:	3520                	.2byte	0x3520
    20a8:	203a                	.2byte	0x203a
    20aa:	654c                	.2byte	0x654c
    20ac:	2065                	.2byte	0x2065
    20ae:	6f6c                	.2byte	0x6f6c
    20b0:	65722073          	.4byte	0x65722073
    20b4:	74736967          	.4byte	0x74736967
    20b8:	6f72                	.2byte	0x6f72
    20ba:	65642073          	.4byte	0x65642073
    20be:	206c                	.2byte	0x206c
    20c0:	736e6573          	.4byte	0x736e6573
    20c4:	4220726f          	jal	tp,94e6 <_ebss+0x6eb6>
    20c8:	454d                	.2byte	0x454d
    20ca:	3836                	.2byte	0x3836
    20cc:	0a30                	.2byte	0xa30
    20ce:	0000                	.2byte	0x0
    20d0:	202d                	.2byte	0x202d
    20d2:	3a36                	.2byte	0x3a36
    20d4:	4c20                	.2byte	0x4c20
    20d6:	6565                	.2byte	0x6565
    20d8:	6c20                	.2byte	0x6c20
    20da:	6320736f          	jal	t1,970c <_ebss+0x70dc>
    20de:	6e61                	.2byte	0x6e61
    20e0:	6c61                	.2byte	0x6c61
    20e2:	7365                	.2byte	0x7365
    20e4:	6420                	.2byte	0x6420
    20e6:	6c65                	.2byte	0x6c65
    20e8:	4120                	.2byte	0x4120
    20ea:	4344                	.2byte	0x4344
    20ec:	000a                	.2byte	0xa
    20ee:	0000                	.2byte	0x0
    20f0:	202d                	.2byte	0x202d
    20f2:	41203a37          	lui	s4,0x41203
    20f6:	76697463          	bgeu	s2,t1,285e <_ebss+0x22e>
    20fa:	2f61                	.2byte	0x2f61
    20fc:	6564                	.2byte	0x6564
    20fe:	74636173          	.4byte	0x74636173
    2102:	7669                	.2byte	0x7669
    2104:	2061                	.2byte	0x2061
    2106:	50455453          	.4byte	0x50455453
    210a:	5055                	.2byte	0x5055
    210c:	435f 2c45 6220      	.byte	0x5f, 0x43, 0x45, 0x2c, 0x20, 0x62
    2112:	7469                	.2byte	0x7469
    2114:	3720                	.2byte	0x3720
    2116:	6720                	.2byte	0x6720
    2118:	6f70                	.2byte	0x6f70
    211a:	7475                	.2byte	0x7475
    211c:	000a                	.2byte	0xa
    211e:	0000                	.2byte	0x0
    2120:	202d                	.2byte	0x202d
    2122:	3a38                	.2byte	0x3a38
    2124:	4120                	.2byte	0x4120
    2126:	76697463          	bgeu	s2,t1,288e <_ebss+0x25e>
    212a:	2f61                	.2byte	0x2f61
    212c:	6564                	.2byte	0x6564
    212e:	74636173          	.4byte	0x74636173
    2132:	7669                	.2byte	0x7669
    2134:	2061                	.2byte	0x2061
    2136:	5f534147          	.4byte	0x5f534147
    213a:	5635                	.2byte	0x5635
    213c:	435f 5254 2c4c      	.byte	0x5f, 0x43, 0x54, 0x52, 0x4c, 0x2c
    2142:	6220                	.2byte	0x6220
    2144:	7469                	.2byte	0x7469
    2146:	3620                	.2byte	0x3620
    2148:	6720                	.2byte	0x6720
    214a:	6f70                	.2byte	0x6f70
    214c:	7475                	.2byte	0x7475
    214e:	000a                	.2byte	0xa
    2150:	202d                	.2byte	0x202d
    2152:	3a39                	.2byte	0x3a39
    2154:	4120                	.2byte	0x4120
    2156:	76697463          	bgeu	s2,t1,28be <_ebss+0x28e>
    215a:	2f61                	.2byte	0x2f61
    215c:	6564                	.2byte	0x6564
    215e:	74636173          	.4byte	0x74636173
    2162:	7669                	.2byte	0x7669
    2164:	2061                	.2byte	0x2061
    2166:	5f534147          	.4byte	0x5f534147
    216a:	5631                	.2byte	0x5631
    216c:	5f34                	.2byte	0x5f34
    216e:	4c525443          	.4byte	0x4c525443
    2172:	202c                	.2byte	0x202c
    2174:	6962                	.2byte	0x6962
    2176:	2074                	.2byte	0x2074
    2178:	2035                	.2byte	0x2035
    217a:	756f7067          	.4byte	0x756f7067
    217e:	0a74                	.2byte	0xa74
    2180:	0000                	.2byte	0x0
    2182:	0000                	.2byte	0x0
    2184:	202d                	.2byte	0x202d
    2186:	3a30                	.2byte	0x3a30
    2188:	4c20                	.2byte	0x4c20
    218a:	6565                	.2byte	0x6565
    218c:	7320                	.2byte	0x7320
    218e:	6c61                	.2byte	0x6c61
    2190:	6469                	.2byte	0x6469
    2192:	2061                	.2byte	0x2061
    2194:	6564                	.2byte	0x6564
    2196:	206c                	.2byte	0x206c
    2198:	736e6573          	.4byte	0x736e6573
    219c:	6420726f          	jal	tp,97de <_ebss+0x71ae>
    21a0:	2065                	.2byte	0x2065
    21a2:	6170                	.2byte	0x6170
    21a4:	7472                	.2byte	0x7472
    21a6:	6369                	.2byte	0x6369
    21a8:	6c75                	.2byte	0x6c75
    21aa:	7361                	.2byte	0x7361
    21ac:	000a                	.2byte	0xa
    21ae:	0000                	.2byte	0x0
    21b0:	202d                	.2byte	0x202d
    21b2:	3a72                	.2byte	0x3a72
    21b4:	4c20                	.2byte	0x4c20
    21b6:	6565                	.2byte	0x6565
    21b8:	6520                	.2byte	0x6520
    21ba:	206c                	.2byte	0x206c
    21bc:	736e6553          	.4byte	0x736e6553
    21c0:	5020726f          	jal	tp,96c2 <_ebss+0x7092>
    21c4:	6572                	.2byte	0x6572
    21c6:	6e6f6973          	.4byte	0x6e6f6973
    21ca:	4d20                	.2byte	0x4d20
    21cc:	30363853          	.4byte	0x30363853
    21d0:	41423237          	lui	tp,0x41423
    21d4:	3130                	.2byte	0x3130
    21d6:	2820                	.2byte	0x2820
    21d8:	3249                	.2byte	0x3249
    21da:	000a2943          	.4byte	0xa2943
    21de:	0000                	.2byte	0x0
    21e0:	202d                	.2byte	0x202d
    21e2:	3a71                	.2byte	0x3a71
    21e4:	5320                	.2byte	0x5320
    21e6:	6c61                	.2byte	0x6c61
    21e8:	6174                	.2byte	0x6174
    21ea:	6120                	.2byte	0x6120
    21ec:	6c20                	.2byte	0x6c20
    21ee:	2061                	.2byte	0x2061
    21f0:	6964                	.2byte	0x6964
    21f2:	6572                	.2byte	0x6572
    21f4:	6f696363          	bltu	s2,s6,28da <_ebss+0x2aa>
    21f8:	206e                	.2byte	0x206e
    21fa:	2030                	.2byte	0x2030
    21fc:	6328                	.2byte	0x6328
    21fe:	7361                	.2byte	0x7361
    2200:	2069                	.2byte	0x2069
    2202:	6f6d6f63          	bltu	s10,s6,2900 <_ebss+0x2d0>
    2206:	7520                	.2byte	0x7520
    2208:	206e                	.2byte	0x206e
    220a:	6572                	.2byte	0x6572
    220c:	29746573          	.4byte	0x29746573
    2210:	000a                	.2byte	0xa
    2212:	0000                	.2byte	0x0
    2214:	3e2d                	.2byte	0x3e2d
    2216:	7420                	.2byte	0x7420
    2218:	203a                	.2byte	0x203a
    221a:	7250                	.2byte	0x7250
    221c:	6575                	.2byte	0x6575
    221e:	6162                	.2byte	0x6162
    2220:	6520                	.2byte	0x6520
    2222:	206c                	.2byte	0x206c
    2224:	6574                	.2byte	0x6574
    2226:	706d                	.2byte	0x706d
    2228:	7a69726f          	jal	tp,999ce <_ebss+0x9739e>
    222c:	6461                	.2byte	0x6461
    222e:	6420726f          	jal	tp,9870 <_ebss+0x7240>
    2232:	2065                	.2byte	0x2065
    2234:	6f6c                	.2byte	0x6f6c
    2236:	454c2073          	.4byte	0x454c2073
    223a:	2044                	.2byte	0x2044
    223c:	5428                	.2byte	0x5428
    223e:	3d20                	.2byte	0x3d20
    2240:	3020                	.2byte	0x3020
    2242:	352e                	.2byte	0x352e
    2244:	7320                	.2byte	0x7320
    2246:	6765                	.2byte	0x6765
    2248:	202c                	.2byte	0x202c
    224a:	6c61                	.2byte	0x6c61
    224c:	6120                	.2byte	0x6120
    224e:	7272                	.2byte	0x7272
    2250:	6e61                	.2byte	0x6e61
    2252:	20726163          	bltu	tp,t2,2454 <udat1+0x7c>
    2256:	2031                	.2byte	0x2031
    2258:	29676573          	.4byte	0x29676573
    225c:	5b20                	.2byte	0x5b20
    225e:	4c42                	.2byte	0x4c42
    2260:	0a5d514f          	.4byte	0xa5d514f
    2264:	0000                	.2byte	0x0
    2266:	0000                	.2byte	0x0
    2268:	202d                	.2byte	0x202d
    226a:	4c203a67          	.4byte	0x4c203a67
    226e:	2061                	.2byte	0x2061
    2270:	696c6173          	.4byte	0x696c6173
    2274:	6164                	.2byte	0x6164
    2276:	6420                	.2byte	0x6420
    2278:	6c65                	.2byte	0x6c65
    227a:	4720                	.2byte	0x4720
    227c:	5350                	.2byte	0x5350
    227e:	2820                	.2byte	0x2820
    2280:	4155                	.2byte	0x4155
    2282:	5452                	.2byte	0x5452
    2284:	2931                	.2byte	0x2931
    2286:	6120                	.2byte	0x6120
    2288:	6c20                	.2byte	0x6c20
    228a:	2061                	.2byte	0x2061
    228c:	4155                	.2byte	0x4155
    228e:	5452                	.2byte	0x5452
    2290:	0a30                	.2byte	0xa30
    2292:	0000                	.2byte	0x0
    2294:	202d                	.2byte	0x202d
    2296:	4c203a6b          	.4byte	0x4c203a6b
    229a:	2061                	.2byte	0x2061
    229c:	696c6173          	.4byte	0x696c6173
    22a0:	6164                	.2byte	0x6164
    22a2:	6420                	.2byte	0x6420
    22a4:	2065                	.2byte	0x2065
    22a6:	616c                	.2byte	0x616c
    22a8:	5520                	.2byte	0x5520
    22aa:	5241                	.2byte	0x5241
    22ac:	3254                	.2byte	0x3254
    22ae:	6120                	.2byte	0x6120
    22b0:	6c20                	.2byte	0x6c20
    22b2:	2061                	.2byte	0x2061
    22b4:	4155                	.2byte	0x4155
    22b6:	5452                	.2byte	0x5452
    22b8:	0a30                	.2byte	0xa30
    22ba:	0000                	.2byte	0x0
    22bc:	202d                	.2byte	0x202d
    22be:	3a6c                	.2byte	0x3a6c
    22c0:	4c20                	.2byte	0x4c20
    22c2:	6565                	.2byte	0x6565
    22c4:	6520                	.2byte	0x6520
    22c6:	64617473          	.4byte	0x64617473
    22ca:	6564206f          	j	44920 <_ebss+0x422f0>
    22ce:	206c                	.2byte	0x206c
    22d0:	4954                	.2byte	0x4954
    22d2:	454d                	.2byte	0x454d
    22d4:	0a52                	.2byte	0xa52
    22d6:	0000                	.2byte	0x0
    22d8:	202d                	.2byte	0x202d
    22da:	3a31                	.2byte	0x3a31
    22dc:	5020                	.2byte	0x5020
    22de:	6e69                	.2byte	0x6e69
    22e0:	6174                	.2byte	0x6174
    22e2:	6d20                	.2byte	0x6d20
    22e4:	6e65                	.2byte	0x6e65
    22e6:	2075                	.2byte	0x2075
    22e8:	6f70                	.2byte	0x6f70
    22ea:	2072                	.2byte	0x2072
    22ec:	4155                	.2byte	0x4155
    22ee:	5452                	.2byte	0x5452
    22f0:	0a30                	.2byte	0xa30
    22f2:	0000                	.2byte	0x0
    22f4:	202d                	.2byte	0x202d
    22f6:	3a32                	.2byte	0x3a32
    22f8:	4520                	.2byte	0x4520
    22fa:	766e                	.2byte	0x766e
    22fc:	6169                	.2byte	0x6169
    22fe:	6420                	.2byte	0x6420
    2300:	7461                	.2byte	0x7461
    2302:	7020736f          	jal	t1,9a04 <_ebss+0x73d4>
    2306:	5520726f          	jal	tp,9858 <_ebss+0x7228>
    230a:	5241                	.2byte	0x5241
    230c:	3054                	.2byte	0x3054
    230e:	7620                	.2byte	0x7620
    2310:	6169                	.2byte	0x6169
    2312:	6920                	.2byte	0x6920
    2314:	746e                	.2byte	0x746e
    2316:	7265                	.2byte	0x7265
    2318:	7572                	.2byte	0x7572
    231a:	6370                	.2byte	0x6370
    231c:	6f69                	.2byte	0x6f69
    231e:	656e                	.2byte	0x656e
    2320:	0a0a2073          	.4byte	0xa0a2073
    2324:	0000                	.2byte	0x0
    2326:	0000                	.2byte	0x0
    2328:	6d6d6f43          	.4byte	0x6d6d6f43
    232c:	6e61                	.2byte	0x6e61
    232e:	2064                	.2byte	0x2064
    2330:	36357a5b          	.4byte	0x36357a5b
    2334:	30393837          	lui	a6,0x30393
    2338:	7172                	.2byte	0x7172
    233a:	6774                	.2byte	0x6774
    233c:	32316c6b          	.4byte	0x32316c6b
    2340:	3e5d                	.2byte	0x3e5d
    2342:	0020                	.2byte	0x20
    2344:	6f4c                	.2byte	0x6f4c
    2346:	7320                	.2byte	0x7320
    2348:	6569                	.2byte	0x6569
    234a:	746e                	.2byte	0x746e
    234c:	7561206f          	j	14aa2 <_ebss+0x12472>
    2350:	206e                	.2byte	0x206e
    2352:	6f6e                	.2byte	0x6f6e
    2354:	6820                	.2byte	0x6820
    2356:	6d65                	.2byte	0x6d65
    2358:	6920736f          	jal	t1,99ea <_ebss+0x73ba>
    235c:	706d                	.2byte	0x706d
    235e:	656c                	.2byte	0x656c
    2360:	656d                	.2byte	0x656d
    2362:	746e                	.2byte	0x746e
    2364:	6461                	.2byte	0x6461
    2366:	7365206f          	j	54a9c <_ebss+0x5246c>
    236a:	6f74                	.2byte	0x6f74
    236c:	3a20                	.2byte	0x3a20
    236e:	0029                	.2byte	0x29
    2370:	75636553          	.4byte	0x75636553
    2374:	6e65                	.2byte	0x6e65
    2376:	20616963          	bltu	sp,t1,2588 <bmeRegs+0xe0>
    237a:	6e49                	.2byte	0x6e49
    237c:	6369                	.2byte	0x6369
    237e:	6169                	.2byte	0x6169
    2380:	6164                	.2byte	0x6164
    2382:	0000                	.2byte	0x0
    2384:	540a                	.2byte	0x540a
    2386:	3a544e43          	.4byte	0x3a544e43
    238a:	2520                	.2byte	0x2520
    238c:	0a64                	.2byte	0xa64
    238e:	0000                	.2byte	0x0
    2390:	6f4e                	.2byte	0x6f4e
    2392:	7620                	.2byte	0x7620
    2394:	6c61                	.2byte	0x6c61
    2396:	6469                	.2byte	0x6469
    2398:	6320                	.2byte	0x6320
    239a:	2065646f          	jal	s0,585a0 <_ebss+0x55f70>
    239e:	656c6573          	.4byte	0x656c6573
    23a2:	64657463          	bgeu	a0,t1,29ea <_ebss+0x3ba>
    23a6:	0000                	.2byte	0x0
    23a8:	2d0a                	.2byte	0x2d0a
    23aa:	2d2d                	.2byte	0x2d2d
    23ac:	2d2d                	.2byte	0x2d2d
    23ae:	2d2d                	.2byte	0x2d2d
    23b0:	0a0a                	.2byte	0xa0a
	...
