Archive member included to satisfy reference by file (symbol)

c:/users/andrés martín yeves/desktop/carpeta trabajo - tp/tools/xpack-risc_v/bin/../lib/gcc/riscv-none-elf/12.2.0/rv32e/ilp32e\libgcc.a(muldi3.o)
                              C:\Users\ANDRSM~1\AppData\Local\Temp\ccvSDWbw.o (__mulsi3)
c:/users/andrés martín yeves/desktop/carpeta trabajo - tp/tools/xpack-risc_v/bin/../lib/gcc/riscv-none-elf/12.2.0/rv32e/ilp32e\libgcc.a(div.o)
                              C:\Users\ANDRSM~1\AppData\Local\Temp\ccvSDWbw.o (__divsi3)

Discarded input sections

 .debug_line    0x0000000000000000       0xc2 C:\Users\ANDRSM~1\AppData\Local\Temp\ccHJmKqa.o
 .debug_line_str
                0x0000000000000000       0x6a C:\Users\ANDRSM~1\AppData\Local\Temp\ccHJmKqa.o
 .debug_info    0x0000000000000000       0x24 C:\Users\ANDRSM~1\AppData\Local\Temp\ccHJmKqa.o
 .debug_abbrev  0x0000000000000000       0x14 C:\Users\ANDRSM~1\AppData\Local\Temp\ccHJmKqa.o
 .debug_aranges
                0x0000000000000000       0x20 C:\Users\ANDRSM~1\AppData\Local\Temp\ccHJmKqa.o
 .debug_str     0x0000000000000000       0x6e C:\Users\ANDRSM~1\AppData\Local\Temp\ccHJmKqa.o
 .debug_info    0x0000000000000000     0x21ea C:\Users\ANDRSM~1\AppData\Local\Temp\ccvSDWbw.o
 .debug_abbrev  0x0000000000000000      0x43e C:\Users\ANDRSM~1\AppData\Local\Temp\ccvSDWbw.o
 .debug_loclists
                0x0000000000000000     0x1582 C:\Users\ANDRSM~1\AppData\Local\Temp\ccvSDWbw.o
 .debug_aranges
                0x0000000000000000       0x28 C:\Users\ANDRSM~1\AppData\Local\Temp\ccvSDWbw.o
 .debug_rnglists
                0x0000000000000000       0x7d C:\Users\ANDRSM~1\AppData\Local\Temp\ccvSDWbw.o
 .debug_line    0x0000000000000000     0x31e6 C:\Users\ANDRSM~1\AppData\Local\Temp\ccvSDWbw.o
 .debug_str     0x0000000000000000      0x5b7 C:\Users\ANDRSM~1\AppData\Local\Temp\ccvSDWbw.o
 .debug_line_str
                0x0000000000000000      0x174 C:\Users\ANDRSM~1\AppData\Local\Temp\ccvSDWbw.o
 .debug_frame   0x0000000000000000      0x660 C:\Users\ANDRSM~1\AppData\Local\Temp\ccvSDWbw.o

Memory Configuration

Name             Origin             Length             Attributes
RAM              0x0000000000000000 0x0000000000004000 xrw
*default*        0x0000000000000000 0xffffffffffffffff

Linker script and memory map


.text           0x0000000000000000     0x2dcf
                0x0000000000000000                . = ALIGN (0x4)
 *(.boot)
 .boot          0x0000000000000000        0x4 C:\Users\ANDRSM~1\AppData\Local\Temp\ccHJmKqa.o
 *(.text)
 .text          0x0000000000000004       0x68 C:\Users\ANDRSM~1\AppData\Local\Temp\ccHJmKqa.o
                0x0000000000000060                delay_loop
 .text          0x000000000000006c     0x1a54 C:\Users\ANDRSM~1\AppData\Local\Temp\ccvSDWbw.o
                0x000000000000006c                irq1_handler
                0x00000000000000d0                irq2_handler
                0x0000000000000120                _putch
                0x00000000000005f8                irq4_handler
                0x00000000000006c8                irq5_handler
                0x0000000000000758                _puts
                0x000000000000078c                irq3_handler
                0x00000000000008a0                _printf
                0x00000000000008dc                _sprintf
                0x0000000000000914                _getch
                0x0000000000000958                haschar
                0x0000000000000974                getMEPC
                0x0000000000000980                irq0_handler
                0x00000000000009f0                _printfBin
                0x0000000000000a58                getw
                0x0000000000000aac                _memcpy
                0x0000000000000ad4                _getch1
                0x0000000000000b18                _putch2
                0x0000000000000b34                strchr
                0x0000000000000b5c                parse_comma_delimited_str
                0x0000000000000bcc                strncmp
                0x0000000000000c00                getGPSFrame
                0x0000000000000ea8                spixfer
                0x0000000000000ecc                readBME680
                0x0000000000000f0c                writeBME680
                0x0000000000000f58                ReadADC
                0x0000000000000fbc                printAdcChannels
                0x0000000000001064                readAllBMERegs
                0x000000000000113c                printBMERegs
                0x0000000000001230                bmeReg
                0x0000000000001250                startBME680
                0x00000000000012f0                measureBME680
                0x00000000000016e8                ReadGP2Y
                0x00000000000016f4                StartGAS
                0x0000000000001720                test_U1_IRQREAD
                0x0000000000001738                test_U1_READ
                0x0000000000001750                test_U0_WRITE
                0x0000000000001754                timerTest
                0x0000000000001770                GpoutTest
                0x00000000000017e8                GpinTest
                0x00000000000018b8                SPITest
                0x00000000000018ec                spiLoRAxfer
                0x0000000000001910                readLoRA
                0x0000000000001948                writeLoRA
                0x0000000000001990                readAllLoRaRegs
                0x0000000000001a00                printLoRaRegs
                0x0000000000001a80                GpinRead
 .text          0x0000000000001ac0       0x24 c:/users/andrés martín yeves/desktop/carpeta trabajo - tp/tools/xpack-risc_v/bin/../lib/gcc/riscv-none-elf/12.2.0/rv32e/ilp32e\libgcc.a(muldi3.o)
                0x0000000000001ac0                __mulsi3
 .text          0x0000000000001ae4       0xb4 c:/users/andrés martín yeves/desktop/carpeta trabajo - tp/tools/xpack-risc_v/bin/../lib/gcc/riscv-none-elf/12.2.0/rv32e/ilp32e\libgcc.a(div.o)
                0x0000000000001ae4                __divsi3
                0x0000000000001aec                __udivsi3
                0x0000000000001aec                __hidden___udivsi3
                0x0000000000001b34                __umodsi3
                0x0000000000001b68                __modsi3
 *(.text*)
 .text.startup  0x0000000000001b98      0x3f0 C:\Users\ANDRSM~1\AppData\Local\Temp\ccvSDWbw.o
                0x0000000000001b98                main
 *(.rodata)
 .rodata        0x0000000000001f88       0xb2 C:\Users\ANDRSM~1\AppData\Local\Temp\ccvSDWbw.o
 *(.rodata*)
 *fill*         0x000000000000203a        0x2 
 .rodata.str1.4
                0x000000000000203c      0xd93 C:\Users\ANDRSM~1\AppData\Local\Temp\ccvSDWbw.o
                                        0xd97 (size before relaxing)
 *(.srodata)
 *(.srodata*)
                0x0000000000002dcf                _etext = .
                0x0000000000002dcf                _sidata = _etext

.rela.dyn       0x0000000000002dd0        0x0
 .rela.text     0x0000000000002dd0        0x0 C:\Users\ANDRSM~1\AppData\Local\Temp\ccHJmKqa.o

.data           0x0000000000002dcf        0x5
                0x0000000000002dd0                . = ALIGN (0x4)
 *fill*         0x0000000000002dcf        0x1 
                0x0000000000002dcf                _sdata_values = LOADADDR (.data)
                0x0000000000002dd0                _sdata = .
                0x0000000000002dd0                _ram_start = .
                0x0000000000002dd0                . = ALIGN (0x4)
 *(.data)
 .data          0x0000000000002dd0        0x0 C:\Users\ANDRSM~1\AppData\Local\Temp\ccHJmKqa.o
 .data          0x0000000000002dd0        0x0 C:\Users\ANDRSM~1\AppData\Local\Temp\ccvSDWbw.o
 .data          0x0000000000002dd0        0x0 c:/users/andrés martín yeves/desktop/carpeta trabajo - tp/tools/xpack-risc_v/bin/../lib/gcc/riscv-none-elf/12.2.0/rv32e/ilp32e\libgcc.a(muldi3.o)
 .data          0x0000000000002dd0        0x0 c:/users/andrés martín yeves/desktop/carpeta trabajo - tp/tools/xpack-risc_v/bin/../lib/gcc/riscv-none-elf/12.2.0/rv32e/ilp32e\libgcc.a(div.o)
 *(.data*)
 *(.sdata)
 .sdata         0x0000000000002dd0        0x3 C:\Users\ANDRSM~1\AppData\Local\Temp\ccvSDWbw.o
                0x0000000000002dd2                GPS_FF
 *(.sdata*)
                0x0000000000002dd4                . = ALIGN (0x4)
 *fill*         0x0000000000002dd3        0x1 
                0x0000000000002dd4                _edata = .

.bss            0x0000000000002dd4      0x278
                0x0000000000002dd4                . = ALIGN (0x4)
                0x0000000000002dd4                _sbss = .
 *(.bss)
 .bss           0x0000000000002dd4        0x0 C:\Users\ANDRSM~1\AppData\Local\Temp\ccHJmKqa.o
 .bss           0x0000000000002dd4      0x270 C:\Users\ANDRSM~1\AppData\Local\Temp\ccvSDWbw.o
                0x0000000000002dd4                udat0
                0x0000000000002df4                udat1
                0x0000000000002e74                GPS_FRAME
                0x0000000000002ec4                bmeRegs
                0x0000000000002fc4                loraRegs
 .bss           0x0000000000003044        0x0 c:/users/andrés martín yeves/desktop/carpeta trabajo - tp/tools/xpack-risc_v/bin/../lib/gcc/riscv-none-elf/12.2.0/rv32e/ilp32e\libgcc.a(muldi3.o)
 .bss           0x0000000000003044        0x0 c:/users/andrés martín yeves/desktop/carpeta trabajo - tp/tools/xpack-risc_v/bin/../lib/gcc/riscv-none-elf/12.2.0/rv32e/ilp32e\libgcc.a(div.o)
 *(.bss*)
 *(.sbss)
 .sbss          0x0000000000003044        0x7 C:\Users\ANDRSM~1\AppData\Local\Temp\ccvSDWbw.o
                0x0000000000003044                volcarOutputGPS
                0x0000000000003045                binaryCount
                0x0000000000003046                clkMode
                0x0000000000003047                wrix1
                0x0000000000003048                rdix1
                0x0000000000003049                wrix0
                0x000000000000304a                rdix0
 *(.sbss*)
 *(COMMON)
                0x000000000000304c                . = ALIGN (0x4)
 *fill*         0x000000000000304b        0x1 
                0x000000000000304c                _ebss = .

.heap           0x000000000000304c        0x0
                0x000000000000304c                . = ALIGN (0x4)
                0x000000000000304c                _heap_start = .
LOAD C:\Users\ANDRSM~1\AppData\Local\Temp\ccHJmKqa.o
LOAD C:\Users\ANDRSM~1\AppData\Local\Temp\ccvSDWbw.o
LOAD c:/users/andrés martín yeves/desktop/carpeta trabajo - tp/tools/xpack-risc_v/bin/../lib/gcc/riscv-none-elf/12.2.0/rv32e/ilp32e\libgcc.a
OUTPUT(code.elf elf32-littleriscv)

.riscv.attributes
                0x0000000000000000       0x20
 .riscv.attributes
                0x0000000000000000       0x1a C:\Users\ANDRSM~1\AppData\Local\Temp\ccHJmKqa.o
 .riscv.attributes
                0x000000000000001a       0x20 C:\Users\ANDRSM~1\AppData\Local\Temp\ccvSDWbw.o
 .riscv.attributes
                0x000000000000003a       0x1a c:/users/andrés martín yeves/desktop/carpeta trabajo - tp/tools/xpack-risc_v/bin/../lib/gcc/riscv-none-elf/12.2.0/rv32e/ilp32e\libgcc.a(muldi3.o)
 .riscv.attributes
                0x0000000000000054       0x1a c:/users/andrés martín yeves/desktop/carpeta trabajo - tp/tools/xpack-risc_v/bin/../lib/gcc/riscv-none-elf/12.2.0/rv32e/ilp32e\libgcc.a(div.o)

.comment        0x0000000000000000       0x33
 .comment       0x0000000000000000       0x33 C:\Users\ANDRSM~1\AppData\Local\Temp\ccvSDWbw.o
                                         0x34 (size before relaxing)
