
code.elf:     file format elf32-littleriscv


Disassembly of section .text:

00000000 <reset_vec>:
       0:	0040006f          	j	4 <start>

00000004 <start>:
       4:	00004137          	lui	sp,0x4
       8:	00004517          	auipc	a0,0x4
       c:	83850513          	addi	a0,a0,-1992 # 3840 <a.0>
      10:	00004597          	auipc	a1,0x4
      14:	82f58593          	addi	a1,a1,-2001 # 383f <_etext>
      18:	00004617          	auipc	a2,0x4
      1c:	83060613          	addi	a2,a2,-2000 # 3848 <udat0>
      20:	00c55c63          	bge	a0,a2,38 <end_init_data>

00000024 <loop_init_data>:
      24:	0005a683          	lw	a3,0(a1)
      28:	00d52023          	sw	a3,0(a0)
      2c:	00450513          	addi	a0,a0,4
      30:	00458593          	addi	a1,a1,4
      34:	fec548e3          	blt	a0,a2,24 <loop_init_data>

00000038 <end_init_data>:
      38:	00004517          	auipc	a0,0x4
      3c:	81050513          	addi	a0,a0,-2032 # 3848 <udat0>
      40:	00004597          	auipc	a1,0x4
      44:	aa458593          	addi	a1,a1,-1372 # 3ae4 <_ebss>
      48:	00b55863          	bge	a0,a1,58 <end_init_bss>

0000004c <loop_init_bss>:
      4c:	00052023          	sw	zero,0(a0)
      50:	00450513          	addi	a0,a0,4
      54:	feb54ce3          	blt	a0,a1,4c <loop_init_bss>

00000058 <end_init_bss>:
      58:	7a0020ef          	jal	ra,27f8 <main>

0000005c <loop>:
      5c:	0000006f          	j	5c <loop>

00000060 <delay_loop>:
      60:	fff50513          	addi	a0,a0,-1
      64:	fe051ee3          	bnez	a0,60 <delay_loop>
      68:	00008067          	ret

0000006c <irq1_handler>:
      6c:	ff010113          	addi	sp,sp,-16 # 3ff0 <_ebss+0x50c>
      70:	00e12223          	sw	a4,4(sp)
      74:	00004737          	lui	a4,0x4
      78:	00d12423          	sw	a3,8(sp)
      7c:	ae174683          	lbu	a3,-1311(a4) # 3ae1 <wrix0>
      80:	00f12023          	sw	a5,0(sp)
      84:	00c12623          	sw	a2,12(sp)
      88:	00168793          	addi	a5,a3,1
      8c:	0ff7f793          	zext.b	a5,a5
      90:	aef700a3          	sb	a5,-1311(a4)
      94:	e00007b7          	lui	a5,0xe0000
      98:	0007c603          	lbu	a2,0(a5) # e0000000 <_ebss+0xdfffc51c>
      9c:	000047b7          	lui	a5,0x4
      a0:	84878793          	addi	a5,a5,-1976 # 3848 <udat0>
      a4:	00d787b3          	add	a5,a5,a3
      a8:	00c78023          	sb	a2,0(a5)
      ac:	ae174783          	lbu	a5,-1311(a4)
      b0:	00c12603          	lw	a2,12(sp)
      b4:	00812683          	lw	a3,8(sp)
      b8:	01f7f793          	andi	a5,a5,31
      bc:	aef700a3          	sb	a5,-1311(a4)
      c0:	00412703          	lw	a4,4(sp)
      c4:	00012783          	lw	a5,0(sp)
      c8:	01010113          	addi	sp,sp,16
      cc:	30200073          	mret

000000d0 <irq2_handler>:
      d0:	ff410113          	addi	sp,sp,-12
      d4:	00e12223          	sw	a4,4(sp)
      d8:	00004737          	lui	a4,0x4
      dc:	00f12023          	sw	a5,0(sp)
      e0:	84274783          	lbu	a5,-1982(a4) # 3842 <a.2>
      e4:	00d12423          	sw	a3,8(sp)
      e8:	e00006b7          	lui	a3,0xe0000
      ec:	00f68023          	sb	a5,0(a3) # e0000000 <_ebss+0xdfffc51c>
      f0:	00178793          	addi	a5,a5,1
      f4:	0ff7f693          	zext.b	a3,a5
      f8:	01879793          	slli	a5,a5,0x18
      fc:	4187d793          	srai	a5,a5,0x18
     100:	0007d463          	bgez	a5,108 <irq2_handler+0x38>
     104:	02000693          	li	a3,32
     108:	84d70123          	sb	a3,-1982(a4)
     10c:	00012783          	lw	a5,0(sp)
     110:	00812683          	lw	a3,8(sp)
     114:	00412703          	lw	a4,4(sp)
     118:	00c10113          	addi	sp,sp,12
     11c:	30200073          	mret

00000120 <irq5_handler>:
     120:	ff410113          	addi	sp,sp,-12
     124:	00e12223          	sw	a4,4(sp)
     128:	00004737          	lui	a4,0x4
     12c:	00f12023          	sw	a5,0(sp)
     130:	84174783          	lbu	a5,-1983(a4) # 3841 <a.1>
     134:	00d12423          	sw	a3,8(sp)
     138:	e00006b7          	lui	a3,0xe0000
     13c:	00f68423          	sb	a5,8(a3) # e0000008 <_ebss+0xdfffc524>
     140:	00178793          	addi	a5,a5,1
     144:	0ff7f693          	zext.b	a3,a5
     148:	01879793          	slli	a5,a5,0x18
     14c:	4187d793          	srai	a5,a5,0x18
     150:	0007d463          	bgez	a5,158 <irq5_handler+0x38>
     154:	02000693          	li	a3,32
     158:	84d700a3          	sb	a3,-1983(a4)
     15c:	00012783          	lw	a5,0(sp)
     160:	00812683          	lw	a3,8(sp)
     164:	00412703          	lw	a4,4(sp)
     168:	00c10113          	addi	sp,sp,12
     16c:	30200073          	mret

00000170 <irq7_handler>:
     170:	ff410113          	addi	sp,sp,-12
     174:	00e12223          	sw	a4,4(sp)
     178:	00004737          	lui	a4,0x4
     17c:	00f12023          	sw	a5,0(sp)
     180:	84074783          	lbu	a5,-1984(a4) # 3840 <a.0>
     184:	00d12423          	sw	a3,8(sp)
     188:	e00006b7          	lui	a3,0xe0000
     18c:	00f68823          	sb	a5,16(a3) # e0000010 <_ebss+0xdfffc52c>
     190:	00178793          	addi	a5,a5,1
     194:	0ff7f693          	zext.b	a3,a5
     198:	01879793          	slli	a5,a5,0x18
     19c:	4187d793          	srai	a5,a5,0x18
     1a0:	0007d463          	bgez	a5,1a8 <irq7_handler+0x38>
     1a4:	02000693          	li	a3,32
     1a8:	84d70023          	sb	a3,-1984(a4)
     1ac:	00012783          	lw	a5,0(sp)
     1b0:	00812683          	lw	a3,8(sp)
     1b4:	00412703          	lw	a4,4(sp)
     1b8:	00c10113          	addi	sp,sp,12
     1bc:	30200073          	mret

000001c0 <_putch>:
     1c0:	e0000737          	lui	a4,0xe0000
     1c4:	00472783          	lw	a5,4(a4) # e0000004 <_ebss+0xdfffc520>
     1c8:	0027f793          	andi	a5,a5,2
     1cc:	fe078ce3          	beqz	a5,1c4 <_putch+0x4>
     1d0:	0ff57513          	zext.b	a0,a0
     1d4:	00a70023          	sb	a0,0(a4)
     1d8:	00008067          	ret

000001dc <printchar>:
     1dc:	00050793          	mv	a5,a0
     1e0:	00058513          	mv	a0,a1
     1e4:	00078e63          	beqz	a5,200 <printchar+0x24>
     1e8:	0007a703          	lw	a4,0(a5)
     1ec:	00b70023          	sb	a1,0(a4)
     1f0:	0007a703          	lw	a4,0(a5)
     1f4:	00170713          	addi	a4,a4,1
     1f8:	00e7a023          	sw	a4,0(a5)
     1fc:	00008067          	ret
     200:	fc1ff06f          	j	1c0 <_putch>

00000204 <prints>:
     204:	fe410113          	addi	sp,sp,-28
     208:	00912823          	sw	s1,16(sp)
     20c:	00112c23          	sw	ra,24(sp)
     210:	00812a23          	sw	s0,20(sp)
     214:	00a12223          	sw	a0,4(sp)
     218:	00058493          	mv	s1,a1
     21c:	02000793          	li	a5,32
     220:	02c05c63          	blez	a2,258 <prints+0x54>
     224:	00000793          	li	a5,0
     228:	0080006f          	j	230 <prints+0x2c>
     22c:	00178793          	addi	a5,a5,1
     230:	00f48733          	add	a4,s1,a5
     234:	00074703          	lbu	a4,0(a4)
     238:	fe071ae3          	bnez	a4,22c <prints+0x28>
     23c:	02c7da63          	bge	a5,a2,270 <prints+0x6c>
     240:	40f60633          	sub	a2,a2,a5
     244:	02000713          	li	a4,32
     248:	0026f793          	andi	a5,a3,2
     24c:	00e12023          	sw	a4,0(sp)
     250:	00078663          	beqz	a5,25c <prints+0x58>
     254:	03000793          	li	a5,48
     258:	00f12023          	sw	a5,0(sp)
     25c:	0016f693          	andi	a3,a3,1
     260:	00000793          	li	a5,0
     264:	04069063          	bnez	a3,2a4 <prints+0xa0>
     268:	00060413          	mv	s0,a2
     26c:	0240006f          	j	290 <prints+0x8c>
     270:	00000613          	li	a2,0
     274:	fd1ff06f          	j	244 <prints+0x40>
     278:	00012583          	lw	a1,0(sp)
     27c:	00412503          	lw	a0,4(sp)
     280:	00c12423          	sw	a2,8(sp)
     284:	fff40413          	addi	s0,s0,-1
     288:	f55ff0ef          	jal	ra,1dc <printchar>
     28c:	00812603          	lw	a2,8(sp)
     290:	fe8044e3          	bgtz	s0,278 <prints+0x74>
     294:	00060793          	mv	a5,a2
     298:	00065463          	bgez	a2,2a0 <prints+0x9c>
     29c:	00000793          	li	a5,0
     2a0:	40f60633          	sub	a2,a2,a5
     2a4:	00078413          	mv	s0,a5
     2a8:	0200006f          	j	2c8 <prints+0xc4>
     2ac:	00412503          	lw	a0,4(sp)
     2b0:	00c12623          	sw	a2,12(sp)
     2b4:	00f12423          	sw	a5,8(sp)
     2b8:	f25ff0ef          	jal	ra,1dc <printchar>
     2bc:	00812783          	lw	a5,8(sp)
     2c0:	00c12603          	lw	a2,12(sp)
     2c4:	00140413          	addi	s0,s0,1
     2c8:	40f406b3          	sub	a3,s0,a5
     2cc:	00d486b3          	add	a3,s1,a3
     2d0:	0006c583          	lbu	a1,0(a3)
     2d4:	fc059ce3          	bnez	a1,2ac <prints+0xa8>
     2d8:	00060493          	mv	s1,a2
     2dc:	02904263          	bgtz	s1,300 <prints+0xfc>
     2e0:	00065463          	bgez	a2,2e8 <prints+0xe4>
     2e4:	00000613          	li	a2,0
     2e8:	01812083          	lw	ra,24(sp)
     2ec:	00860533          	add	a0,a2,s0
     2f0:	01412403          	lw	s0,20(sp)
     2f4:	01012483          	lw	s1,16(sp)
     2f8:	01c10113          	addi	sp,sp,28
     2fc:	00008067          	ret
     300:	00012583          	lw	a1,0(sp)
     304:	00412503          	lw	a0,4(sp)
     308:	00c12423          	sw	a2,8(sp)
     30c:	fff48493          	addi	s1,s1,-1
     310:	ecdff0ef          	jal	ra,1dc <printchar>
     314:	00812603          	lw	a2,8(sp)
     318:	fc5ff06f          	j	2dc <prints+0xd8>

0000031c <printi>:
     31c:	fcc10113          	addi	sp,sp,-52
     320:	02812623          	sw	s0,44(sp)
     324:	00058313          	mv	t1,a1
     328:	02112823          	sw	ra,48(sp)
     32c:	02912423          	sw	s1,40(sp)
     330:	00a12023          	sw	a0,0(sp)
     334:	00060593          	mv	a1,a2
     338:	00068413          	mv	s0,a3
     33c:	00070613          	mv	a2,a4
     340:	00078693          	mv	a3,a5
     344:	02031463          	bnez	t1,36c <printi+0x50>
     348:	03000793          	li	a5,48
     34c:	01c10593          	addi	a1,sp,28
     350:	00f11e23          	sh	a5,28(sp)
     354:	eb1ff0ef          	jal	ra,204 <prints>
     358:	03012083          	lw	ra,48(sp)
     35c:	02c12403          	lw	s0,44(sp)
     360:	02812483          	lw	s1,40(sp)
     364:	03410113          	addi	sp,sp,52
     368:	00008067          	ret
     36c:	00030793          	mv	a5,t1
     370:	00040a63          	beqz	s0,384 <printi+0x68>
     374:	00a00713          	li	a4,10
     378:	0ee59263          	bne	a1,a4,45c <printi+0x140>
     37c:	0e035063          	bgez	t1,45c <printi+0x140>
     380:	406007b3          	neg	a5,t1
     384:	03412703          	lw	a4,52(sp)
     388:	020103a3          	sb	zero,39(sp)
     38c:	02710313          	addi	t1,sp,39
     390:	fc670713          	addi	a4,a4,-58
     394:	00e12223          	sw	a4,4(sp)
     398:	00078513          	mv	a0,a5
     39c:	00d12c23          	sw	a3,24(sp)
     3a0:	00c12a23          	sw	a2,20(sp)
     3a4:	00612823          	sw	t1,16(sp)
     3a8:	00b12623          	sw	a1,12(sp)
     3ac:	00f12423          	sw	a5,8(sp)
     3b0:	3e4020ef          	jal	ra,2794 <__umodsi3>
     3b4:	00900713          	li	a4,9
     3b8:	00812783          	lw	a5,8(sp)
     3bc:	00c12583          	lw	a1,12(sp)
     3c0:	01012303          	lw	t1,16(sp)
     3c4:	01412603          	lw	a2,20(sp)
     3c8:	01812683          	lw	a3,24(sp)
     3cc:	00a77663          	bgeu	a4,a0,3d8 <printi+0xbc>
     3d0:	00412703          	lw	a4,4(sp)
     3d4:	00e50533          	add	a0,a0,a4
     3d8:	03050513          	addi	a0,a0,48
     3dc:	fea30fa3          	sb	a0,-1(t1)
     3e0:	00078513          	mv	a0,a5
     3e4:	00d12c23          	sw	a3,24(sp)
     3e8:	00c12a23          	sw	a2,20(sp)
     3ec:	fff30493          	addi	s1,t1,-1
     3f0:	00612823          	sw	t1,16(sp)
     3f4:	00b12623          	sw	a1,12(sp)
     3f8:	00f12423          	sw	a5,8(sp)
     3fc:	350020ef          	jal	ra,274c <__hidden___udivsi3>
     400:	00812783          	lw	a5,8(sp)
     404:	00c12583          	lw	a1,12(sp)
     408:	01012303          	lw	t1,16(sp)
     40c:	01412603          	lw	a2,20(sp)
     410:	01812683          	lw	a3,24(sp)
     414:	04b7f863          	bgeu	a5,a1,464 <printi+0x148>
     418:	02040863          	beqz	s0,448 <printi+0x12c>
     41c:	04060a63          	beqz	a2,470 <printi+0x154>
     420:	0026f793          	andi	a5,a3,2
     424:	04078663          	beqz	a5,470 <printi+0x154>
     428:	00012503          	lw	a0,0(sp)
     42c:	02d00593          	li	a1,45
     430:	00d12423          	sw	a3,8(sp)
     434:	00c12223          	sw	a2,4(sp)
     438:	da5ff0ef          	jal	ra,1dc <printchar>
     43c:	00412603          	lw	a2,4(sp)
     440:	00812683          	lw	a3,8(sp)
     444:	fff60613          	addi	a2,a2,-1
     448:	00012503          	lw	a0,0(sp)
     44c:	00048593          	mv	a1,s1
     450:	db5ff0ef          	jal	ra,204 <prints>
     454:	00850533          	add	a0,a0,s0
     458:	f01ff06f          	j	358 <printi+0x3c>
     45c:	00000413          	li	s0,0
     460:	f25ff06f          	j	384 <printi+0x68>
     464:	00050793          	mv	a5,a0
     468:	00048313          	mv	t1,s1
     46c:	f2dff06f          	j	398 <printi+0x7c>
     470:	02d00793          	li	a5,45
     474:	fef48fa3          	sb	a5,-1(s1)
     478:	00000413          	li	s0,0
     47c:	ffe30493          	addi	s1,t1,-2
     480:	fc9ff06f          	j	448 <printi+0x12c>

00000484 <print>:
     484:	fe010113          	addi	sp,sp,-32
     488:	00812c23          	sw	s0,24(sp)
     48c:	00912a23          	sw	s1,20(sp)
     490:	00112e23          	sw	ra,28(sp)
     494:	00a12223          	sw	a0,4(sp)
     498:	00058313          	mv	t1,a1
     49c:	00060413          	mv	s0,a2
     4a0:	00000493          	li	s1,0
     4a4:	00034783          	lbu	a5,0(t1)
     4a8:	02079663          	bnez	a5,4d4 <print+0x50>
     4ac:	00412783          	lw	a5,4(sp)
     4b0:	00078663          	beqz	a5,4bc <print+0x38>
     4b4:	0007a783          	lw	a5,0(a5)
     4b8:	00078023          	sb	zero,0(a5)
     4bc:	01c12083          	lw	ra,28(sp)
     4c0:	01812403          	lw	s0,24(sp)
     4c4:	00048513          	mv	a0,s1
     4c8:	01412483          	lw	s1,20(sp)
     4cc:	02010113          	addi	sp,sp,32
     4d0:	00008067          	ret
     4d4:	02500713          	li	a4,37
     4d8:	1ae79263          	bne	a5,a4,67c <print+0x1f8>
     4dc:	00134683          	lbu	a3,1(t1)
     4e0:	fc0686e3          	beqz	a3,4ac <print+0x28>
     4e4:	00130713          	addi	a4,t1,1
     4e8:	18f68863          	beq	a3,a5,678 <print+0x1f4>
     4ec:	02d00613          	li	a2,45
     4f0:	00000793          	li	a5,0
     4f4:	00c69663          	bne	a3,a2,500 <print+0x7c>
     4f8:	00230713          	addi	a4,t1,2
     4fc:	00100793          	li	a5,1
     500:	00070313          	mv	t1,a4
     504:	03000713          	li	a4,48
     508:	00034683          	lbu	a3,0(t1)
     50c:	00130613          	addi	a2,t1,1
     510:	04e68c63          	beq	a3,a4,568 <print+0xe4>
     514:	00000713          	li	a4,0
     518:	00900593          	li	a1,9
     51c:	00034683          	lbu	a3,0(t1)
     520:	00130513          	addi	a0,t1,1
     524:	fd068613          	addi	a2,a3,-48
     528:	0ff67393          	zext.b	t2,a2
     52c:	0475f463          	bgeu	a1,t2,574 <print+0xf0>
     530:	07300613          	li	a2,115
     534:	04c69c63          	bne	a3,a2,58c <print+0x108>
     538:	00042583          	lw	a1,0(s0)
     53c:	00440393          	addi	t2,s0,4
     540:	00059663          	bnez	a1,54c <print+0xc8>
     544:	000035b7          	lui	a1,0x3
     548:	96458593          	addi	a1,a1,-1692 # 2964 <main+0x16c>
     54c:	00612623          	sw	t1,12(sp)
     550:	00712423          	sw	t2,8(sp)
     554:	00078693          	mv	a3,a5
     558:	00070613          	mv	a2,a4
     55c:	00412503          	lw	a0,4(sp)
     560:	ca5ff0ef          	jal	ra,204 <prints>
     564:	0580006f          	j	5bc <print+0x138>
     568:	0027e793          	ori	a5,a5,2
     56c:	00060313          	mv	t1,a2
     570:	f99ff06f          	j	508 <print+0x84>
     574:	00271693          	slli	a3,a4,0x2
     578:	00e686b3          	add	a3,a3,a4
     57c:	00169693          	slli	a3,a3,0x1
     580:	00d60733          	add	a4,a2,a3
     584:	00050313          	mv	t1,a0
     588:	f95ff06f          	j	51c <print+0x98>
     58c:	06400613          	li	a2,100
     590:	04c69263          	bne	a3,a2,5d4 <print+0x150>
     594:	06100693          	li	a3,97
     598:	00440393          	addi	t2,s0,4
     59c:	00042583          	lw	a1,0(s0)
     5a0:	00612623          	sw	t1,12(sp)
     5a4:	00d12023          	sw	a3,0(sp)
     5a8:	00712423          	sw	t2,8(sp)
     5ac:	00100693          	li	a3,1
     5b0:	00a00613          	li	a2,10
     5b4:	00412503          	lw	a0,4(sp)
     5b8:	d65ff0ef          	jal	ra,31c <printi>
     5bc:	00812383          	lw	t2,8(sp)
     5c0:	00c12303          	lw	t1,12(sp)
     5c4:	00a484b3          	add	s1,s1,a0
     5c8:	00038413          	mv	s0,t2
     5cc:	00130313          	addi	t1,t1,1
     5d0:	ed5ff06f          	j	4a4 <print+0x20>
     5d4:	07800613          	li	a2,120
     5d8:	02c69463          	bne	a3,a2,600 <print+0x17c>
     5dc:	00042583          	lw	a1,0(s0)
     5e0:	00440393          	addi	t2,s0,4
     5e4:	00612623          	sw	t1,12(sp)
     5e8:	00712423          	sw	t2,8(sp)
     5ec:	06100693          	li	a3,97
     5f0:	00d12023          	sw	a3,0(sp)
     5f4:	01000613          	li	a2,16
     5f8:	00000693          	li	a3,0
     5fc:	fb9ff06f          	j	5b4 <print+0x130>
     600:	05800613          	li	a2,88
     604:	00c69e63          	bne	a3,a2,620 <print+0x19c>
     608:	00440393          	addi	t2,s0,4
     60c:	00042583          	lw	a1,0(s0)
     610:	00612623          	sw	t1,12(sp)
     614:	00712423          	sw	t2,8(sp)
     618:	04100693          	li	a3,65
     61c:	fd5ff06f          	j	5f0 <print+0x16c>
     620:	07500613          	li	a2,117
     624:	02c69263          	bne	a3,a2,648 <print+0x1c4>
     628:	06100693          	li	a3,97
     62c:	00440393          	addi	t2,s0,4
     630:	00042583          	lw	a1,0(s0)
     634:	00612623          	sw	t1,12(sp)
     638:	00d12023          	sw	a3,0(sp)
     63c:	00712423          	sw	t2,8(sp)
     640:	00000693          	li	a3,0
     644:	f6dff06f          	j	5b0 <print+0x12c>
     648:	06300613          	li	a2,99
     64c:	f8c690e3          	bne	a3,a2,5cc <print+0x148>
     650:	00042683          	lw	a3,0(s0)
     654:	00440393          	addi	t2,s0,4
     658:	00612623          	sw	t1,12(sp)
     65c:	00d10823          	sb	a3,16(sp)
     660:	00712423          	sw	t2,8(sp)
     664:	000108a3          	sb	zero,17(sp)
     668:	00078693          	mv	a3,a5
     66c:	00070613          	mv	a2,a4
     670:	01010593          	addi	a1,sp,16
     674:	ee9ff06f          	j	55c <print+0xd8>
     678:	00070313          	mv	t1,a4
     67c:	00034583          	lbu	a1,0(t1)
     680:	00412503          	lw	a0,4(sp)
     684:	00612423          	sw	t1,8(sp)
     688:	00148493          	addi	s1,s1,1
     68c:	b51ff0ef          	jal	ra,1dc <printchar>
     690:	00812303          	lw	t1,8(sp)
     694:	f39ff06f          	j	5cc <print+0x148>

00000698 <irq4_handler>:
     698:	fd810113          	addi	sp,sp,-40
     69c:	00f12023          	sw	a5,0(sp)
     6a0:	000047b7          	lui	a5,0x4
     6a4:	00e12223          	sw	a4,4(sp)
     6a8:	ada7c703          	lbu	a4,-1318(a5) # 3ada <volcarOutputGPS>
     6ac:	02112223          	sw	ra,36(sp)
     6b0:	02512023          	sw	t0,32(sp)
     6b4:	00612e23          	sw	t1,28(sp)
     6b8:	00712c23          	sw	t2,24(sp)
     6bc:	00a12a23          	sw	a0,20(sp)
     6c0:	00b12823          	sw	a1,16(sp)
     6c4:	00c12623          	sw	a2,12(sp)
     6c8:	00d12423          	sw	a3,8(sp)
     6cc:	00100793          	li	a5,1
     6d0:	06f71c63          	bne	a4,a5,748 <irq4_handler+0xb0>
     6d4:	e00007b7          	lui	a5,0xe0000
     6d8:	0087c503          	lbu	a0,8(a5) # e0000008 <_ebss+0xdfffc524>
     6dc:	ae5ff0ef          	jal	ra,1c0 <_putch>
     6e0:	00004737          	lui	a4,0x4
     6e4:	adf74683          	lbu	a3,-1313(a4) # 3adf <wrix1>
     6e8:	00168793          	addi	a5,a3,1
     6ec:	0ff7f793          	zext.b	a5,a5
     6f0:	acf70fa3          	sb	a5,-1313(a4)
     6f4:	e00007b7          	lui	a5,0xe0000
     6f8:	0087c603          	lbu	a2,8(a5) # e0000008 <_ebss+0xdfffc524>
     6fc:	000047b7          	lui	a5,0x4
     700:	84878793          	addi	a5,a5,-1976 # 3848 <udat0>
     704:	00d787b3          	add	a5,a5,a3
     708:	02c78023          	sb	a2,32(a5)
     70c:	adf74783          	lbu	a5,-1313(a4)
     710:	02412083          	lw	ra,36(sp)
     714:	02012283          	lw	t0,32(sp)
     718:	07f7f793          	andi	a5,a5,127
     71c:	acf70fa3          	sb	a5,-1313(a4)
     720:	01c12303          	lw	t1,28(sp)
     724:	01812383          	lw	t2,24(sp)
     728:	01412503          	lw	a0,20(sp)
     72c:	01012583          	lw	a1,16(sp)
     730:	00c12603          	lw	a2,12(sp)
     734:	00812683          	lw	a3,8(sp)
     738:	00412703          	lw	a4,4(sp)
     73c:	00012783          	lw	a5,0(sp)
     740:	02810113          	addi	sp,sp,40
     744:	30200073          	mret
     748:	e00007b7          	lui	a5,0xe0000
     74c:	0087c703          	lbu	a4,8(a5) # e0000008 <_ebss+0xdfffc524>
     750:	00d00793          	li	a5,13
     754:	f8f716e3          	bne	a4,a5,6e0 <irq4_handler+0x48>
     758:	000047b7          	lui	a5,0x4
     75c:	03100713          	li	a4,49
     760:	84e78223          	sb	a4,-1980(a5) # 3844 <GPS_FF>
     764:	f7dff06f          	j	6e0 <irq4_handler+0x48>

00000768 <irq6_handler>:
     768:	fd410113          	addi	sp,sp,-44
     76c:	00812c23          	sw	s0,24(sp)
     770:	00004437          	lui	s0,0x4
     774:	00d12423          	sw	a3,8(sp)
     778:	add44683          	lbu	a3,-1315(s0) # 3add <wrix2>
     77c:	00f12023          	sw	a5,0(sp)
     780:	00e12223          	sw	a4,4(sp)
     784:	00168793          	addi	a5,a3,1
     788:	0ff7f793          	zext.b	a5,a5
     78c:	02112423          	sw	ra,40(sp)
     790:	02512223          	sw	t0,36(sp)
     794:	02612023          	sw	t1,32(sp)
     798:	00712e23          	sw	t2,28(sp)
     79c:	00a12a23          	sw	a0,20(sp)
     7a0:	00b12823          	sw	a1,16(sp)
     7a4:	00c12623          	sw	a2,12(sp)
     7a8:	acf40ea3          	sb	a5,-1315(s0)
     7ac:	e0000737          	lui	a4,0xe0000
     7b0:	01074603          	lbu	a2,16(a4) # e0000010 <_ebss+0xdfffc52c>
     7b4:	000047b7          	lui	a5,0x4
     7b8:	84878793          	addi	a5,a5,-1976 # 3848 <udat0>
     7bc:	00d787b3          	add	a5,a5,a3
     7c0:	0ac78023          	sb	a2,160(a5)
     7c4:	01074503          	lbu	a0,16(a4)
     7c8:	9f9ff0ef          	jal	ra,1c0 <_putch>
     7cc:	add44783          	lbu	a5,-1315(s0)
     7d0:	02812083          	lw	ra,40(sp)
     7d4:	02412283          	lw	t0,36(sp)
     7d8:	07f7f793          	andi	a5,a5,127
     7dc:	acf40ea3          	sb	a5,-1315(s0)
     7e0:	01812403          	lw	s0,24(sp)
     7e4:	02012303          	lw	t1,32(sp)
     7e8:	01c12383          	lw	t2,28(sp)
     7ec:	01412503          	lw	a0,20(sp)
     7f0:	01012583          	lw	a1,16(sp)
     7f4:	00c12603          	lw	a2,12(sp)
     7f8:	00812683          	lw	a3,8(sp)
     7fc:	00412703          	lw	a4,4(sp)
     800:	00012783          	lw	a5,0(sp)
     804:	02c10113          	addi	sp,sp,44
     808:	30200073          	mret

0000080c <_puts>:
     80c:	ff410113          	addi	sp,sp,-12
     810:	00812223          	sw	s0,4(sp)
     814:	00112423          	sw	ra,8(sp)
     818:	00050413          	mv	s0,a0
     81c:	00044503          	lbu	a0,0(s0)
     820:	00051a63          	bnez	a0,834 <_puts+0x28>
     824:	00812083          	lw	ra,8(sp)
     828:	00412403          	lw	s0,4(sp)
     82c:	00c10113          	addi	sp,sp,12
     830:	00008067          	ret
     834:	00140413          	addi	s0,s0,1
     838:	989ff0ef          	jal	ra,1c0 <_putch>
     83c:	fe1ff06f          	j	81c <_puts+0x10>

00000840 <_sizeof>:
     840:	00050713          	mv	a4,a0
     844:	00070793          	mv	a5,a4
     848:	00074683          	lbu	a3,0(a4)
     84c:	00170713          	addi	a4,a4,1
     850:	fe069ae3          	bnez	a3,844 <_sizeof+0x4>
     854:	40a78533          	sub	a0,a5,a0
     858:	00150513          	addi	a0,a0,1
     85c:	0ff57513          	zext.b	a0,a0
     860:	00008067          	ret

00000864 <_printf>:
     864:	fdc10113          	addi	sp,sp,-36
     868:	00b12823          	sw	a1,16(sp)
     86c:	00c12a23          	sw	a2,20(sp)
     870:	00050593          	mv	a1,a0
     874:	01010613          	addi	a2,sp,16
     878:	00000513          	li	a0,0
     87c:	00112623          	sw	ra,12(sp)
     880:	00d12c23          	sw	a3,24(sp)
     884:	00e12e23          	sw	a4,28(sp)
     888:	02f12023          	sw	a5,32(sp)
     88c:	00c12023          	sw	a2,0(sp)
     890:	bf5ff0ef          	jal	ra,484 <print>
     894:	00c12083          	lw	ra,12(sp)
     898:	02410113          	addi	sp,sp,36
     89c:	00008067          	ret

000008a0 <_sprintf>:
     8a0:	fdc10113          	addi	sp,sp,-36
     8a4:	00a12023          	sw	a0,0(sp)
     8a8:	00c12a23          	sw	a2,20(sp)
     8ac:	00010513          	mv	a0,sp
     8b0:	01410613          	addi	a2,sp,20
     8b4:	00112823          	sw	ra,16(sp)
     8b8:	00d12c23          	sw	a3,24(sp)
     8bc:	00e12e23          	sw	a4,28(sp)
     8c0:	02f12023          	sw	a5,32(sp)
     8c4:	00c12223          	sw	a2,4(sp)
     8c8:	bbdff0ef          	jal	ra,484 <print>
     8cc:	01012083          	lw	ra,16(sp)
     8d0:	02410113          	addi	sp,sp,36
     8d4:	00008067          	ret

000008d8 <_getch>:
     8d8:	00004737          	lui	a4,0x4
     8dc:	00004637          	lui	a2,0x4
     8e0:	ae274683          	lbu	a3,-1310(a4) # 3ae2 <rdix0>
     8e4:	ae164783          	lbu	a5,-1311(a2) # 3ae1 <wrix0>
     8e8:	fef68ce3          	beq	a3,a5,8e0 <_getch+0x8>
     8ec:	ae274683          	lbu	a3,-1310(a4)
     8f0:	00168793          	addi	a5,a3,1
     8f4:	0ff7f793          	zext.b	a5,a5
     8f8:	aef70123          	sb	a5,-1310(a4)
     8fc:	000047b7          	lui	a5,0x4
     900:	84878793          	addi	a5,a5,-1976 # 3848 <udat0>
     904:	00d787b3          	add	a5,a5,a3
     908:	ae274683          	lbu	a3,-1310(a4)
     90c:	0007c503          	lbu	a0,0(a5)
     910:	01f6f693          	andi	a3,a3,31
     914:	aed70123          	sb	a3,-1310(a4)
     918:	00008067          	ret

0000091c <haschar>:
     91c:	000047b7          	lui	a5,0x4
     920:	ae17c503          	lbu	a0,-1311(a5) # 3ae1 <wrix0>
     924:	000047b7          	lui	a5,0x4
     928:	ae27c783          	lbu	a5,-1310(a5) # 3ae2 <rdix0>
     92c:	40f50533          	sub	a0,a0,a5
     930:	0ff57513          	zext.b	a0,a0
     934:	00008067          	ret

00000938 <getMEPC>:
     938:	34101573          	.word	0x34101573
     93c:	34151073          	.word	0x34151073
     940:	00008067          	ret

00000944 <irq0_handler>:
     944:	fd810113          	addi	sp,sp,-40
     948:	02112223          	sw	ra,36(sp)
     94c:	02512023          	sw	t0,32(sp)
     950:	00612e23          	sw	t1,28(sp)
     954:	00712c23          	sw	t2,24(sp)
     958:	00b12823          	sw	a1,16(sp)
     95c:	00c12623          	sw	a2,12(sp)
     960:	00d12423          	sw	a3,8(sp)
     964:	00e12223          	sw	a4,4(sp)
     968:	00f12023          	sw	a5,0(sp)
     96c:	00a12a23          	sw	a0,20(sp)
     970:	fc9ff0ef          	jal	ra,938 <getMEPC>
     974:	00050593          	mv	a1,a0
     978:	00003537          	lui	a0,0x3
     97c:	96c50513          	addi	a0,a0,-1684 # 296c <main+0x174>
     980:	ee5ff0ef          	jal	ra,864 <_printf>
     984:	02412083          	lw	ra,36(sp)
     988:	02012283          	lw	t0,32(sp)
     98c:	01c12303          	lw	t1,28(sp)
     990:	01812383          	lw	t2,24(sp)
     994:	01412503          	lw	a0,20(sp)
     998:	01012583          	lw	a1,16(sp)
     99c:	00c12603          	lw	a2,12(sp)
     9a0:	00812683          	lw	a3,8(sp)
     9a4:	00412703          	lw	a4,4(sp)
     9a8:	00012783          	lw	a5,0(sp)
     9ac:	02810113          	addi	sp,sp,40
     9b0:	30200073          	mret

000009b4 <_printfBin>:
     9b4:	fe410113          	addi	sp,sp,-28
     9b8:	00157593          	andi	a1,a0,1
     9bc:	00b12423          	sw	a1,8(sp)
     9c0:	40155593          	srai	a1,a0,0x1
     9c4:	0015f593          	andi	a1,a1,1
     9c8:	00b12223          	sw	a1,4(sp)
     9cc:	40255593          	srai	a1,a0,0x2
     9d0:	0015f593          	andi	a1,a1,1
     9d4:	00a12623          	sw	a0,12(sp)
     9d8:	00b12023          	sw	a1,0(sp)
     9dc:	40355793          	srai	a5,a0,0x3
     9e0:	40455713          	srai	a4,a0,0x4
     9e4:	40555693          	srai	a3,a0,0x5
     9e8:	40655613          	srai	a2,a0,0x6
     9ec:	00755593          	srli	a1,a0,0x7
     9f0:	00003537          	lui	a0,0x3
     9f4:	0017f793          	andi	a5,a5,1
     9f8:	00177713          	andi	a4,a4,1
     9fc:	0016f693          	andi	a3,a3,1
     a00:	00167613          	andi	a2,a2,1
     a04:	97c50513          	addi	a0,a0,-1668 # 297c <main+0x184>
     a08:	00112c23          	sw	ra,24(sp)
     a0c:	e59ff0ef          	jal	ra,864 <_printf>
     a10:	01812083          	lw	ra,24(sp)
     a14:	01c10113          	addi	sp,sp,28
     a18:	00008067          	ret

00000a1c <my_itoa>:
     a1c:	ff010113          	addi	sp,sp,-16
     a20:	00812423          	sw	s0,8(sp)
     a24:	00912223          	sw	s1,4(sp)
     a28:	00112623          	sw	ra,12(sp)
     a2c:	00a12023          	sw	a0,0(sp)
     a30:	00058493          	mv	s1,a1
     a34:	00100413          	li	s0,1
     a38:	00a00693          	li	a3,10
     a3c:	04a6cc63          	blt	a3,a0,a94 <my_itoa+0x78>
     a40:	00012503          	lw	a0,0(sp)
     a44:	00040593          	mv	a1,s0
     a48:	00148493          	addi	s1,s1,1
     a4c:	4f9010ef          	jal	ra,2744 <__divsi3>
     a50:	03050513          	addi	a0,a0,48
     a54:	fea48fa3          	sb	a0,-1(s1)
     a58:	00012503          	lw	a0,0(sp)
     a5c:	00040593          	mv	a1,s0
     a60:	569010ef          	jal	ra,27c8 <__modsi3>
     a64:	00a12023          	sw	a0,0(sp)
     a68:	00a00593          	li	a1,10
     a6c:	00040513          	mv	a0,s0
     a70:	4d5010ef          	jal	ra,2744 <__divsi3>
     a74:	00050413          	mv	s0,a0
     a78:	fc0514e3          	bnez	a0,a40 <my_itoa+0x24>
     a7c:	00048023          	sb	zero,0(s1)
     a80:	00c12083          	lw	ra,12(sp)
     a84:	00812403          	lw	s0,8(sp)
     a88:	00412483          	lw	s1,4(sp)
     a8c:	01010113          	addi	sp,sp,16
     a90:	00008067          	ret
     a94:	00241713          	slli	a4,s0,0x2
     a98:	008707b3          	add	a5,a4,s0
     a9c:	00a00593          	li	a1,10
     aa0:	00179413          	slli	s0,a5,0x1
     aa4:	4a1010ef          	jal	ra,2744 <__divsi3>
     aa8:	f91ff06f          	j	a38 <my_itoa+0x1c>

00000aac <spixfer>:
     aac:	e00007b7          	lui	a5,0xe0000
     ab0:	02a7a023          	sw	a0,32(a5) # e0000020 <_ebss+0xdfffc53c>
     ab4:	e0000737          	lui	a4,0xe0000
     ab8:	02472783          	lw	a5,36(a4) # e0000024 <_ebss+0xdfffc540>
     abc:	0017f793          	andi	a5,a5,1
     ac0:	fe079ce3          	bnez	a5,ab8 <spixfer+0xc>
     ac4:	02072503          	lw	a0,32(a4)
     ac8:	0ff57513          	zext.b	a0,a0
     acc:	00008067          	ret

00000ad0 <readBME680>:
     ad0:	ff410113          	addi	sp,sp,-12
     ad4:	00112423          	sw	ra,8(sp)
     ad8:	00812223          	sw	s0,4(sp)
     adc:	00200793          	li	a5,2
     ae0:	e0000437          	lui	s0,0xe0000
     ae4:	02f42423          	sw	a5,40(s0) # e0000028 <_ebss+0xdfffc544>
     ae8:	08056513          	ori	a0,a0,128
     aec:	fc1ff0ef          	jal	ra,aac <spixfer>
     af0:	00000513          	li	a0,0
     af4:	fb9ff0ef          	jal	ra,aac <spixfer>
     af8:	00300793          	li	a5,3
     afc:	00812083          	lw	ra,8(sp)
     b00:	02f42423          	sw	a5,40(s0)
     b04:	00412403          	lw	s0,4(sp)
     b08:	00c10113          	addi	sp,sp,12
     b0c:	00008067          	ret

00000b10 <writeBME680>:
     b10:	ff410113          	addi	sp,sp,-12
     b14:	00112423          	sw	ra,8(sp)
     b18:	00812223          	sw	s0,4(sp)
     b1c:	00912023          	sw	s1,0(sp)
     b20:	00200793          	li	a5,2
     b24:	e00004b7          	lui	s1,0xe0000
     b28:	02f4a423          	sw	a5,40(s1) # e0000028 <_ebss+0xdfffc544>
     b2c:	00050413          	mv	s0,a0
     b30:	00058513          	mv	a0,a1
     b34:	f79ff0ef          	jal	ra,aac <spixfer>
     b38:	00040513          	mv	a0,s0
     b3c:	f71ff0ef          	jal	ra,aac <spixfer>
     b40:	00812083          	lw	ra,8(sp)
     b44:	00412403          	lw	s0,4(sp)
     b48:	00300793          	li	a5,3
     b4c:	02f4a423          	sw	a5,40(s1)
     b50:	00012483          	lw	s1,0(sp)
     b54:	00c10113          	addi	sp,sp,12
     b58:	00008067          	ret

00000b5c <ReadADC>:
     b5c:	ff410113          	addi	sp,sp,-12
     b60:	00112423          	sw	ra,8(sp)
     b64:	00812223          	sw	s0,4(sp)
     b68:	00912023          	sw	s1,0(sp)
     b6c:	00100793          	li	a5,1
     b70:	e00004b7          	lui	s1,0xe0000
     b74:	02f4a423          	sw	a5,40(s1) # e0000028 <_ebss+0xdfffc544>
     b78:	00050413          	mv	s0,a0
     b7c:	00100513          	li	a0,1
     b80:	f2dff0ef          	jal	ra,aac <spixfer>
     b84:	00040513          	mv	a0,s0
     b88:	f25ff0ef          	jal	ra,aac <spixfer>
     b8c:	00050413          	mv	s0,a0
     b90:	00000513          	li	a0,0
     b94:	f19ff0ef          	jal	ra,aac <spixfer>
     b98:	00841413          	slli	s0,s0,0x8
     b9c:	00812083          	lw	ra,8(sp)
     ba0:	00856533          	or	a0,a0,s0
     ba4:	00412403          	lw	s0,4(sp)
     ba8:	00300793          	li	a5,3
     bac:	02f4a423          	sw	a5,40(s1)
     bb0:	3ff57513          	andi	a0,a0,1023
     bb4:	00012483          	lw	s1,0(sp)
     bb8:	00c10113          	addi	sp,sp,12
     bbc:	00008067          	ret

00000bc0 <irq3_handler>:
     bc0:	fcc10113          	addi	sp,sp,-52
     bc4:	02812023          	sw	s0,32(sp)
     bc8:	00004437          	lui	s0,0x4
     bcc:	00f12223          	sw	a5,4(sp)
     bd0:	adc44783          	lbu	a5,-1316(s0) # 3adc <clkMode>
     bd4:	00912e23          	sw	s1,28(sp)
     bd8:	02112823          	sw	ra,48(sp)
     bdc:	02512623          	sw	t0,44(sp)
     be0:	02612423          	sw	t1,40(sp)
     be4:	02712223          	sw	t2,36(sp)
     be8:	00a12c23          	sw	a0,24(sp)
     bec:	00b12a23          	sw	a1,20(sp)
     bf0:	00c12823          	sw	a2,16(sp)
     bf4:	00d12623          	sw	a3,12(sp)
     bf8:	00e12423          	sw	a4,8(sp)
     bfc:	00200493          	li	s1,2
     c00:	0e978463          	beq	a5,s1,ce8 <irq3_handler+0x128>
     c04:	08f4e263          	bltu	s1,a5,c88 <irq3_handler+0xc8>
     c08:	0a079063          	bnez	a5,ca8 <irq3_handler+0xe8>
     c0c:	e00006b7          	lui	a3,0xe0000
     c10:	0806c783          	lbu	a5,128(a3) # e0000080 <_ebss+0xdfffc59c>
     c14:	00004737          	lui	a4,0x4
     c18:	adb74603          	lbu	a2,-1317(a4) # 3adb <binaryCount>
     c1c:	0f07f793          	andi	a5,a5,240
     c20:	00c787b3          	add	a5,a5,a2
     c24:	0ff7f793          	zext.b	a5,a5
     c28:	08f68023          	sb	a5,128(a3)
     c2c:	adb74783          	lbu	a5,-1317(a4)
     c30:	01000693          	li	a3,16
     c34:	00178793          	addi	a5,a5,1
     c38:	0ff7f793          	zext.b	a5,a5
     c3c:	06d78263          	beq	a5,a3,ca0 <irq3_handler+0xe0>
     c40:	acf70da3          	sb	a5,-1317(a4)
     c44:	e00007b7          	lui	a5,0xe0000
     c48:	0607a783          	lw	a5,96(a5) # e0000060 <_ebss+0xdfffc57c>
     c4c:	02012403          	lw	s0,32(sp)
     c50:	03012083          	lw	ra,48(sp)
     c54:	00f12023          	sw	a5,0(sp)
     c58:	02c12283          	lw	t0,44(sp)
     c5c:	02812303          	lw	t1,40(sp)
     c60:	02412383          	lw	t2,36(sp)
     c64:	01c12483          	lw	s1,28(sp)
     c68:	01812503          	lw	a0,24(sp)
     c6c:	01412583          	lw	a1,20(sp)
     c70:	01012603          	lw	a2,16(sp)
     c74:	00c12683          	lw	a3,12(sp)
     c78:	00812703          	lw	a4,8(sp)
     c7c:	00412783          	lw	a5,4(sp)
     c80:	03410113          	addi	sp,sp,52
     c84:	30200073          	mret
     c88:	00300713          	li	a4,3
     c8c:	08e78e63          	beq	a5,a4,d28 <irq3_handler+0x168>
     c90:	00003537          	lui	a0,0x3
     c94:	99850513          	addi	a0,a0,-1640 # 2998 <main+0x1a0>
     c98:	b75ff0ef          	jal	ra,80c <_puts>
     c9c:	fa9ff06f          	j	c44 <irq3_handler+0x84>
     ca0:	ac070da3          	sb	zero,-1317(a4)
     ca4:	fa1ff06f          	j	c44 <irq3_handler+0x84>
     ca8:	08000513          	li	a0,128
     cac:	eb1ff0ef          	jal	ra,b5c <ReadADC>
     cb0:	000015b7          	lui	a1,0x1
     cb4:	ce458593          	addi	a1,a1,-796 # ce4 <irq3_handler+0x124>
     cb8:	269010ef          	jal	ra,2720 <__mulsi3>
     cbc:	000047b7          	lui	a5,0x4
     cc0:	00a55513          	srli	a0,a0,0xa
     cc4:	aca79b23          	sh	a0,-1322(a5) # 3ad6 <COValue>
     cc8:	e0000737          	lui	a4,0xe0000
     ccc:	03200793          	li	a5,50
     cd0:	08f70023          	sb	a5,128(a4) # e0000080 <_ebss+0xdfffc59c>
     cd4:	405f87b7          	lui	a5,0x405f8
     cd8:	ac940e23          	sb	s1,-1316(s0)
     cdc:	e0078793          	addi	a5,a5,-512 # 405f7e00 <_ebss+0x405f431c>
     ce0:	06f72023          	sw	a5,96(a4)
     ce4:	f61ff06f          	j	c44 <irq3_handler+0x84>
     ce8:	08000513          	li	a0,128
     cec:	e71ff0ef          	jal	ra,b5c <ReadADC>
     cf0:	000015b7          	lui	a1,0x1
     cf4:	ce458593          	addi	a1,a1,-796 # ce4 <irq3_handler+0x124>
     cf8:	229010ef          	jal	ra,2720 <__mulsi3>
     cfc:	000047b7          	lui	a5,0x4
     d00:	00a55513          	srli	a0,a0,0xa
     d04:	aca79c23          	sh	a0,-1320(a5) # 3ad8 <Ch4LPGValue>
     d08:	e0000737          	lui	a4,0xe0000
     d0c:	05100793          	li	a5,81
     d10:	08f70023          	sb	a5,128(a4) # e0000080 <_ebss+0xdfffc59c>
     d14:	00100793          	li	a5,1
     d18:	acf40e23          	sb	a5,-1316(s0)
     d1c:	608f47b7          	lui	a5,0x608f4
     d20:	d0078793          	addi	a5,a5,-768 # 608f3d00 <_ebss+0x608f021c>
     d24:	fbdff06f          	j	ce0 <irq3_handler+0x120>
     d28:	e0000437          	lui	s0,0xe0000
     d2c:	08044783          	lbu	a5,128(s0) # e0000080 <_ebss+0xdfffc59c>
     d30:	68600513          	li	a0,1670
     d34:	000014b7          	lui	s1,0x1
     d38:	0807e793          	ori	a5,a5,128
     d3c:	08f40023          	sb	a5,128(s0)
     d40:	b20ff0ef          	jal	ra,60 <delay_loop>
     d44:	09000513          	li	a0,144
     d48:	e15ff0ef          	jal	ra,b5c <ReadADC>
     d4c:	ce448593          	addi	a1,s1,-796 # ce4 <irq3_handler+0x124>
     d50:	1d1010ef          	jal	ra,2720 <__mulsi3>
     d54:	000047b7          	lui	a5,0x4
     d58:	00a55513          	srli	a0,a0,0xa
     d5c:	aca79a23          	sh	a0,-1324(a5) # 3ad4 <polvoValue>
     d60:	95648513          	addi	a0,s1,-1706
     d64:	afcff0ef          	jal	ra,60 <delay_loop>
     d68:	08044783          	lbu	a5,128(s0)
     d6c:	0807c793          	xori	a5,a5,128
     d70:	08f40023          	sb	a5,128(s0)
     d74:	ed1ff06f          	j	c44 <irq3_handler+0x84>

00000d78 <printAdcChannels>:
     d78:	00003537          	lui	a0,0x3
     d7c:	ff410113          	addi	sp,sp,-12
     d80:	9a850513          	addi	a0,a0,-1624 # 29a8 <main+0x1b0>
     d84:	00112423          	sw	ra,8(sp)
     d88:	00812223          	sw	s0,4(sp)
     d8c:	a81ff0ef          	jal	ra,80c <_puts>
     d90:	08000513          	li	a0,128
     d94:	00001437          	lui	s0,0x1
     d98:	dc5ff0ef          	jal	ra,b5c <ReadADC>
     d9c:	ce440593          	addi	a1,s0,-796 # ce4 <irq3_handler+0x124>
     da0:	181010ef          	jal	ra,2720 <__mulsi3>
     da4:	00a55593          	srli	a1,a0,0xa
     da8:	00003537          	lui	a0,0x3
     dac:	9c050513          	addi	a0,a0,-1600 # 29c0 <main+0x1c8>
     db0:	ab5ff0ef          	jal	ra,864 <_printf>
     db4:	09000513          	li	a0,144
     db8:	da5ff0ef          	jal	ra,b5c <ReadADC>
     dbc:	ce440593          	addi	a1,s0,-796
     dc0:	161010ef          	jal	ra,2720 <__mulsi3>
     dc4:	00a55593          	srli	a1,a0,0xa
     dc8:	00003537          	lui	a0,0x3
     dcc:	9d450513          	addi	a0,a0,-1580 # 29d4 <main+0x1dc>
     dd0:	a95ff0ef          	jal	ra,864 <_printf>
     dd4:	0a000513          	li	a0,160
     dd8:	d85ff0ef          	jal	ra,b5c <ReadADC>
     ddc:	ce440593          	addi	a1,s0,-796
     de0:	141010ef          	jal	ra,2720 <__mulsi3>
     de4:	00a55593          	srli	a1,a0,0xa
     de8:	00003537          	lui	a0,0x3
     dec:	9e850513          	addi	a0,a0,-1560 # 29e8 <main+0x1f0>
     df0:	a75ff0ef          	jal	ra,864 <_printf>
     df4:	0b000513          	li	a0,176
     df8:	d65ff0ef          	jal	ra,b5c <ReadADC>
     dfc:	ce440593          	addi	a1,s0,-796
     e00:	121010ef          	jal	ra,2720 <__mulsi3>
     e04:	00412403          	lw	s0,4(sp)
     e08:	00812083          	lw	ra,8(sp)
     e0c:	00a55593          	srli	a1,a0,0xa
     e10:	00003537          	lui	a0,0x3
     e14:	9fc50513          	addi	a0,a0,-1540 # 29fc <main+0x204>
     e18:	00c10113          	addi	sp,sp,12
     e1c:	a49ff06f          	j	864 <_printf>

00000e20 <readAllBMERegs>:
     e20:	fec10113          	addi	sp,sp,-20
     e24:	07300593          	li	a1,115
     e28:	00000513          	li	a0,0
     e2c:	00812623          	sw	s0,12(sp)
     e30:	00912423          	sw	s1,8(sp)
     e34:	00112823          	sw	ra,16(sp)
     e38:	cd9ff0ef          	jal	ra,b10 <writeBME680>
     e3c:	000047b7          	lui	a5,0x4
     e40:	84878713          	addi	a4,a5,-1976 # 3848 <udat0>
     e44:	1a070713          	addi	a4,a4,416
     e48:	08000413          	li	s0,128
     e4c:	84878493          	addi	s1,a5,-1976
     e50:	00000793          	li	a5,0
     e54:	00f40533          	add	a0,s0,a5
     e58:	0ff57513          	zext.b	a0,a0
     e5c:	00e12223          	sw	a4,4(sp)
     e60:	00f12023          	sw	a5,0(sp)
     e64:	c6dff0ef          	jal	ra,ad0 <readBME680>
     e68:	00012783          	lw	a5,0(sp)
     e6c:	00412703          	lw	a4,4(sp)
     e70:	00f706b3          	add	a3,a4,a5
     e74:	00a68023          	sb	a0,0(a3)
     e78:	00178793          	addi	a5,a5,1
     e7c:	01000693          	li	a3,16
     e80:	fcd79ae3          	bne	a5,a3,e54 <readAllBMERegs+0x34>
     e84:	01040413          	addi	s0,s0,16
     e88:	0ff47413          	zext.b	s0,s0
     e8c:	01070713          	addi	a4,a4,16
     e90:	fc0410e3          	bnez	s0,e50 <readAllBMERegs+0x30>
     e94:	07300593          	li	a1,115
     e98:	01000513          	li	a0,16
     e9c:	c75ff0ef          	jal	ra,b10 <writeBME680>
     ea0:	12048793          	addi	a5,s1,288
     ea4:	00000493          	li	s1,0
     ea8:	00940533          	add	a0,s0,s1
     eac:	0ff57513          	zext.b	a0,a0
     eb0:	00f12023          	sw	a5,0(sp)
     eb4:	c1dff0ef          	jal	ra,ad0 <readBME680>
     eb8:	00012783          	lw	a5,0(sp)
     ebc:	00978733          	add	a4,a5,s1
     ec0:	00a70023          	sb	a0,0(a4)
     ec4:	00148493          	addi	s1,s1,1
     ec8:	01000713          	li	a4,16
     ecc:	fce49ee3          	bne	s1,a4,ea8 <readAllBMERegs+0x88>
     ed0:	01040413          	addi	s0,s0,16
     ed4:	0ff47413          	zext.b	s0,s0
     ed8:	08000713          	li	a4,128
     edc:	01078793          	addi	a5,a5,16
     ee0:	fce412e3          	bne	s0,a4,ea4 <readAllBMERegs+0x84>
     ee4:	01012083          	lw	ra,16(sp)
     ee8:	00c12403          	lw	s0,12(sp)
     eec:	00812483          	lw	s1,8(sp)
     ef0:	01410113          	addi	sp,sp,20
     ef4:	00008067          	ret

00000ef8 <printBMERegs>:
     ef8:	00003537          	lui	a0,0x3
     efc:	fe810113          	addi	sp,sp,-24
     f00:	a1050513          	addi	a0,a0,-1520 # 2a10 <main+0x218>
     f04:	00112a23          	sw	ra,20(sp)
     f08:	00812823          	sw	s0,16(sp)
     f0c:	00912623          	sw	s1,12(sp)
     f10:	8fdff0ef          	jal	ra,80c <_puts>
     f14:	000047b7          	lui	a5,0x4
     f18:	84878793          	addi	a5,a5,-1976 # 3848 <udat0>
     f1c:	00800713          	li	a4,8
     f20:	00f12023          	sw	a5,0(sp)
     f24:	00012783          	lw	a5,0(sp)
     f28:	00471493          	slli	s1,a4,0x4
     f2c:	12078413          	addi	s0,a5,288
     f30:	008484b3          	add	s1,s1,s0
     f34:	00000793          	li	a5,0
     f38:	00f486b3          	add	a3,s1,a5
     f3c:	0006c583          	lbu	a1,0(a3)
     f40:	00f12223          	sw	a5,4(sp)
     f44:	000037b7          	lui	a5,0x3
     f48:	a2c78513          	addi	a0,a5,-1492 # 2a2c <main+0x234>
     f4c:	00e12423          	sw	a4,8(sp)
     f50:	915ff0ef          	jal	ra,864 <_printf>
     f54:	00412783          	lw	a5,4(sp)
     f58:	01000693          	li	a3,16
     f5c:	00812703          	lw	a4,8(sp)
     f60:	00178793          	addi	a5,a5,1
     f64:	fcd79ae3          	bne	a5,a3,f38 <printBMERegs+0x40>
     f68:	000034b7          	lui	s1,0x3
     f6c:	1d848513          	addi	a0,s1,472 # 31d8 <main+0x9e0>
     f70:	00f12423          	sw	a5,8(sp)
     f74:	00e12223          	sw	a4,4(sp)
     f78:	895ff0ef          	jal	ra,80c <_puts>
     f7c:	00412703          	lw	a4,4(sp)
     f80:	00812783          	lw	a5,8(sp)
     f84:	00170713          	addi	a4,a4,1
     f88:	f8f71ee3          	bne	a4,a5,f24 <printBMERegs+0x2c>
     f8c:	1d848513          	addi	a0,s1,472
     f90:	87dff0ef          	jal	ra,80c <_puts>
     f94:	00000793          	li	a5,0
     f98:	00f40733          	add	a4,s0,a5
     f9c:	00074583          	lbu	a1,0(a4)
     fa0:	00f12023          	sw	a5,0(sp)
     fa4:	000037b7          	lui	a5,0x3
     fa8:	a2c78513          	addi	a0,a5,-1492 # 2a2c <main+0x234>
     fac:	8b9ff0ef          	jal	ra,864 <_printf>
     fb0:	00012783          	lw	a5,0(sp)
     fb4:	01000713          	li	a4,16
     fb8:	00178793          	addi	a5,a5,1
     fbc:	fce79ee3          	bne	a5,a4,f98 <printBMERegs+0xa0>
     fc0:	1d848513          	addi	a0,s1,472
     fc4:	849ff0ef          	jal	ra,80c <_puts>
     fc8:	000047b7          	lui	a5,0x4
     fcc:	01040413          	addi	s0,s0,16
     fd0:	9e878793          	addi	a5,a5,-1560 # 39e8 <bmeRegs+0x80>
     fd4:	fcf410e3          	bne	s0,a5,f94 <printBMERegs+0x9c>
     fd8:	01412083          	lw	ra,20(sp)
     fdc:	01012403          	lw	s0,16(sp)
     fe0:	00c12483          	lw	s1,12(sp)
     fe4:	01810113          	addi	sp,sp,24
     fe8:	00008067          	ret

00000fec <bmeReg>:
     fec:	000047b7          	lui	a5,0x4
     ff0:	00f57713          	andi	a4,a0,15
     ff4:	84878793          	addi	a5,a5,-1976 # 3848 <udat0>
     ff8:	0f057513          	andi	a0,a0,240
     ffc:	00a787b3          	add	a5,a5,a0
    1000:	00e787b3          	add	a5,a5,a4
    1004:	1207c503          	lbu	a0,288(a5)
    1008:	00008067          	ret

0000100c <startBME680>:
    100c:	ff410113          	addi	sp,sp,-12
    1010:	07300593          	li	a1,115
    1014:	01000513          	li	a0,16
    1018:	00112423          	sw	ra,8(sp)
    101c:	00812223          	sw	s0,4(sp)
    1020:	af1ff0ef          	jal	ra,b10 <writeBME680>
    1024:	07200593          	li	a1,114
    1028:	00100513          	li	a0,1
    102c:	00001437          	lui	s0,0x1
    1030:	ae1ff0ef          	jal	ra,b10 <writeBME680>
    1034:	76640513          	addi	a0,s0,1894 # 1766 <printLoRaRegs+0x1e>
    1038:	828ff0ef          	jal	ra,60 <delay_loop>
    103c:	07400593          	li	a1,116
    1040:	05400513          	li	a0,84
    1044:	acdff0ef          	jal	ra,b10 <writeBME680>
    1048:	76640513          	addi	a0,s0,1894
    104c:	814ff0ef          	jal	ra,60 <delay_loop>
    1050:	07100593          	li	a1,113
    1054:	01000513          	li	a0,16
    1058:	ab9ff0ef          	jal	ra,b10 <writeBME680>
    105c:	76640513          	addi	a0,s0,1894
    1060:	800ff0ef          	jal	ra,60 <delay_loop>
    1064:	06d00593          	li	a1,109
    1068:	05900513          	li	a0,89
    106c:	aa5ff0ef          	jal	ra,b10 <writeBME680>
    1070:	76640513          	addi	a0,s0,1894
    1074:	fedfe0ef          	jal	ra,60 <delay_loop>
    1078:	06300593          	li	a1,99
    107c:	00000513          	li	a0,0
    1080:	a91ff0ef          	jal	ra,b10 <writeBME680>
    1084:	76640513          	addi	a0,s0,1894
    1088:	fd9fe0ef          	jal	ra,60 <delay_loop>
    108c:	05500513          	li	a0,85
    1090:	07400593          	li	a1,116
    1094:	a7dff0ef          	jal	ra,b10 <writeBME680>
    1098:	76640513          	addi	a0,s0,1894
    109c:	00412403          	lw	s0,4(sp)
    10a0:	00812083          	lw	ra,8(sp)
    10a4:	00c10113          	addi	sp,sp,12
    10a8:	fb9fe06f          	j	60 <delay_loop>

000010ac <measureBME680>:
    10ac:	fd410113          	addi	sp,sp,-44
    10b0:	02112423          	sw	ra,40(sp)
    10b4:	02812223          	sw	s0,36(sp)
    10b8:	02912023          	sw	s1,32(sp)
    10bc:	d65ff0ef          	jal	ra,e20 <readAllBMERegs>
    10c0:	00004737          	lui	a4,0x4
    10c4:	84870413          	addi	s0,a4,-1976 # 3848 <udat0>
    10c8:	14244783          	lbu	a5,322(s0)
    10cc:	14344683          	lbu	a3,323(s0)
    10d0:	20944603          	lbu	a2,521(s0)
    10d4:	00c79793          	slli	a5,a5,0xc
    10d8:	00469693          	slli	a3,a3,0x4
    10dc:	00d7e7b3          	or	a5,a5,a3
    10e0:	14444683          	lbu	a3,324(s0)
    10e4:	0046d693          	srli	a3,a3,0x4
    10e8:	00d7e7b3          	or	a5,a5,a3
    10ec:	4037d693          	srai	a3,a5,0x3
    10f0:	00f12423          	sw	a5,8(sp)
    10f4:	20a44783          	lbu	a5,522(s0)
    10f8:	00879793          	slli	a5,a5,0x8
    10fc:	00c7e7b3          	or	a5,a5,a2
    1100:	00179793          	slli	a5,a5,0x1
    1104:	40f687b3          	sub	a5,a3,a5
    1108:	4017d593          	srai	a1,a5,0x1
    110c:	00058513          	mv	a0,a1
    1110:	00f12023          	sw	a5,0(sp)
    1114:	60c010ef          	jal	ra,2720 <__mulsi3>
    1118:	1ac44583          	lbu	a1,428(s0)
    111c:	40c55513          	srai	a0,a0,0xc
    1120:	00459593          	slli	a1,a1,0x4
    1124:	5fc010ef          	jal	ra,2720 <__mulsi3>
    1128:	00012783          	lw	a5,0(sp)
    112c:	40e55493          	srai	s1,a0,0xe
    1130:	1aa45503          	lhu	a0,426(s0)
    1134:	00078593          	mv	a1,a5
    1138:	5e8010ef          	jal	ra,2720 <__mulsi3>
    113c:	40b55513          	srai	a0,a0,0xb
    1140:	00a484b3          	add	s1,s1,a0
    1144:	00249793          	slli	a5,s1,0x2
    1148:	009787b3          	add	a5,a5,s1
    114c:	08078793          	addi	a5,a5,128
    1150:	4087d793          	srai	a5,a5,0x8
    1154:	00f12023          	sw	a5,0(sp)
    1158:	1b844783          	lbu	a5,440(s0)
    115c:	4014d493          	srai	s1,s1,0x1
    1160:	00f12623          	sw	a5,12(sp)
    1164:	1bc45783          	lhu	a5,444(s0)
    1168:	00f12823          	sw	a5,16(sp)
    116c:	1be45783          	lhu	a5,446(s0)
    1170:	00f12a23          	sw	a5,20(sp)
    1174:	1c044783          	lbu	a5,448(s0)
    1178:	00f12c23          	sw	a5,24(sp)
    117c:	ffff07b7          	lui	a5,0xffff0
    1180:	60078793          	addi	a5,a5,1536 # ffff0600 <_ebss+0xfffecb1c>
    1184:	00f484b3          	add	s1,s1,a5
    1188:	4024d593          	srai	a1,s1,0x2
    118c:	00058513          	mv	a0,a1
    1190:	590010ef          	jal	ra,2720 <__mulsi3>
    1194:	1b944583          	lbu	a1,441(s0)
    1198:	00050793          	mv	a5,a0
    119c:	40b55513          	srai	a0,a0,0xb
    11a0:	00f12e23          	sw	a5,28(sp)
    11a4:	57c010ef          	jal	ra,2720 <__mulsi3>
    11a8:	40255613          	srai	a2,a0,0x2
    11ac:	1b645503          	lhu	a0,438(s0)
    11b0:	00048593          	mv	a1,s1
    11b4:	00c12223          	sw	a2,4(sp)
    11b8:	568010ef          	jal	ra,2720 <__mulsi3>
    11bc:	00412603          	lw	a2,4(sp)
    11c0:	00151693          	slli	a3,a0,0x1
    11c4:	1b045503          	lhu	a0,432(s0)
    11c8:	00c686b3          	add	a3,a3,a2
    11cc:	4026d693          	srai	a3,a3,0x2
    11d0:	00048593          	mv	a1,s1
    11d4:	00d12223          	sw	a3,4(sp)
    11d8:	548010ef          	jal	ra,2720 <__mulsi3>
    11dc:	01c12783          	lw	a5,28(sp)
    11e0:	40155493          	srai	s1,a0,0x1
    11e4:	1b244503          	lbu	a0,434(s0)
    11e8:	40d7d593          	srai	a1,a5,0xd
    11ec:	00551513          	slli	a0,a0,0x5
    11f0:	530010ef          	jal	ra,2720 <__mulsi3>
    11f4:	40355513          	srai	a0,a0,0x3
    11f8:	1ae45583          	lhu	a1,430(s0)
    11fc:	00950533          	add	a0,a0,s1
    1200:	000087b7          	lui	a5,0x8
    1204:	41255513          	srai	a0,a0,0x12
    1208:	00f50533          	add	a0,a0,a5
    120c:	514010ef          	jal	ra,2720 <__mulsi3>
    1210:	13f44783          	lbu	a5,319(s0)
    1214:	14044603          	lbu	a2,320(s0)
    1218:	40f55493          	srai	s1,a0,0xf
    121c:	00c79793          	slli	a5,a5,0xc
    1220:	00461613          	slli	a2,a2,0x4
    1224:	00c7e7b3          	or	a5,a5,a2
    1228:	14144603          	lbu	a2,321(s0)
    122c:	00100537          	lui	a0,0x100
    1230:	000015b7          	lui	a1,0x1
    1234:	00465613          	srli	a2,a2,0x4
    1238:	00c7e7b3          	or	a5,a5,a2
    123c:	40f50533          	sub	a0,a0,a5
    1240:	1b445783          	lhu	a5,436(s0)
    1244:	00412683          	lw	a3,4(sp)
    1248:	c3558593          	addi	a1,a1,-971 # c35 <irq3_handler+0x75>
    124c:	01079793          	slli	a5,a5,0x10
    1250:	00d787b3          	add	a5,a5,a3
    1254:	40c7d793          	srai	a5,a5,0xc
    1258:	40f50533          	sub	a0,a0,a5
    125c:	4c4010ef          	jal	ra,2720 <__mulsi3>
    1260:	400006b7          	lui	a3,0x40000
    1264:	26d54063          	blt	a0,a3,14c4 <measureBME680+0x418>
    1268:	00048593          	mv	a1,s1
    126c:	4e0010ef          	jal	ra,274c <__hidden___udivsi3>
    1270:	00151693          	slli	a3,a0,0x1
    1274:	4036d593          	srai	a1,a3,0x3
    1278:	4086d793          	srai	a5,a3,0x8
    127c:	00058513          	mv	a0,a1
    1280:	00f12223          	sw	a5,4(sp)
    1284:	00d12e23          	sw	a3,28(sp)
    1288:	498010ef          	jal	ra,2720 <__mulsi3>
    128c:	01412583          	lw	a1,20(sp)
    1290:	40d55513          	srai	a0,a0,0xd
    1294:	48c010ef          	jal	ra,2720 <__mulsi3>
    1298:	01c12683          	lw	a3,28(sp)
    129c:	01012583          	lw	a1,16(sp)
    12a0:	40c55493          	srai	s1,a0,0xc
    12a4:	4026d513          	srai	a0,a3,0x2
    12a8:	478010ef          	jal	ra,2720 <__mulsi3>
    12ac:	00412583          	lw	a1,4(sp)
    12b0:	40d55513          	srai	a0,a0,0xd
    12b4:	00a484b3          	add	s1,s1,a0
    12b8:	00058513          	mv	a0,a1
    12bc:	464010ef          	jal	ra,2720 <__mulsi3>
    12c0:	00412583          	lw	a1,4(sp)
    12c4:	45c010ef          	jal	ra,2720 <__mulsi3>
    12c8:	01812583          	lw	a1,24(sp)
    12cc:	454010ef          	jal	ra,2720 <__mulsi3>
    12d0:	00c12703          	lw	a4,12(sp)
    12d4:	41155513          	srai	a0,a0,0x11
    12d8:	00012583          	lw	a1,0(sp)
    12dc:	00771713          	slli	a4,a4,0x7
    12e0:	00a487b3          	add	a5,s1,a0
    12e4:	20644503          	lbu	a0,518(s0)
    12e8:	00e787b3          	add	a5,a5,a4
    12ec:	4047d793          	srai	a5,a5,0x4
    12f0:	00f12a23          	sw	a5,20(sp)
    12f4:	42c010ef          	jal	ra,2720 <__mulsi3>
    12f8:	06400593          	li	a1,100
    12fc:	448010ef          	jal	ra,2744 <__divsi3>
    1300:	00012583          	lw	a1,0(sp)
    1304:	20244483          	lbu	s1,514(s0)
    1308:	418010ef          	jal	ra,2720 <__mulsi3>
    130c:	06400593          	li	a1,100
    1310:	40655513          	srai	a0,a0,0x6
    1314:	430010ef          	jal	ra,2744 <__divsi3>
    1318:	00012583          	lw	a1,0(sp)
    131c:	00a12223          	sw	a0,4(sp)
    1320:	20544503          	lbu	a0,517(s0)
    1324:	3fc010ef          	jal	ra,2720 <__mulsi3>
    1328:	06400593          	li	a1,100
    132c:	418010ef          	jal	ra,2744 <__divsi3>
    1330:	00412703          	lw	a4,4(sp)
    1334:	20144603          	lbu	a2,513(s0)
    1338:	0044d593          	srli	a1,s1,0x4
    133c:	00a70733          	add	a4,a4,a0
    1340:	00461613          	slli	a2,a2,0x4
    1344:	00004537          	lui	a0,0x4
    1348:	00b665b3          	or	a1,a2,a1
    134c:	00a70533          	add	a0,a4,a0
    1350:	3d0010ef          	jal	ra,2720 <__mulsi3>
    1354:	14644703          	lbu	a4,326(s0)
    1358:	14544603          	lbu	a2,325(s0)
    135c:	40a55793          	srai	a5,a0,0xa
    1360:	00871713          	slli	a4,a4,0x8
    1364:	00c76733          	or	a4,a4,a2
    1368:	00871613          	slli	a2,a4,0x8
    136c:	00875713          	srli	a4,a4,0x8
    1370:	00e66733          	or	a4,a2,a4
    1374:	20344603          	lbu	a2,515(s0)
    1378:	00f12223          	sw	a5,4(sp)
    137c:	00f4f493          	andi	s1,s1,15
    1380:	00012583          	lw	a1,0(sp)
    1384:	00461613          	slli	a2,a2,0x4
    1388:	20844503          	lbu	a0,520(s0)
    138c:	00966633          	or	a2,a2,s1
    1390:	01071713          	slli	a4,a4,0x10
    1394:	01075713          	srli	a4,a4,0x10
    1398:	00461613          	slli	a2,a2,0x4
    139c:	40c704b3          	sub	s1,a4,a2
    13a0:	380010ef          	jal	ra,2720 <__mulsi3>
    13a4:	06400593          	li	a1,100
    13a8:	39c010ef          	jal	ra,2744 <__divsi3>
    13ac:	40155593          	srai	a1,a0,0x1
    13b0:	00412503          	lw	a0,4(sp)
    13b4:	40b485b3          	sub	a1,s1,a1
    13b8:	000044b7          	lui	s1,0x4
    13bc:	364010ef          	jal	ra,2720 <__mulsi3>
    13c0:	40e55793          	srai	a5,a0,0xe
    13c4:	00a12823          	sw	a0,16(sp)
    13c8:	00012503          	lw	a0,0(sp)
    13cc:	06400593          	li	a1,100
    13d0:	00f12223          	sw	a5,4(sp)
    13d4:	370010ef          	jal	ra,2744 <__divsi3>
    13d8:	01c12683          	lw	a3,28(sp)
    13dc:	01412783          	lw	a5,20(sp)
    13e0:	000045b7          	lui	a1,0x4
    13e4:	84a581a3          	sb	a0,-1981(a1) # 3843 <temp>
    13e8:	00a12623          	sw	a0,12(sp)
    13ec:	06400593          	li	a1,100
    13f0:	00d78533          	add	a0,a5,a3
    13f4:	350010ef          	jal	ra,2744 <__divsi3>
    13f8:	aca49923          	sh	a0,-1326(s1) # 3ad2 <presion>
    13fc:	00012503          	lw	a0,0(sp)
    1400:	00000593          	li	a1,0
    1404:	00004437          	lui	s0,0x4
    1408:	318010ef          	jal	ra,2720 <__mulsi3>
    140c:	06400593          	li	a1,100
    1410:	334010ef          	jal	ra,2744 <__divsi3>
    1414:	00412583          	lw	a1,4(sp)
    1418:	40455793          	srai	a5,a0,0x4
    141c:	00f12023          	sw	a5,0(sp)
    1420:	00058513          	mv	a0,a1
    1424:	2fc010ef          	jal	ra,2720 <__mulsi3>
    1428:	40a55593          	srai	a1,a0,0xa
    142c:	00012503          	lw	a0,0(sp)
    1430:	2f0010ef          	jal	ra,2720 <__mulsi3>
    1434:	01012603          	lw	a2,16(sp)
    1438:	40155513          	srai	a0,a0,0x1
    143c:	3e800593          	li	a1,1000
    1440:	00c50533          	add	a0,a0,a2
    1444:	40a55513          	srai	a0,a0,0xa
    1448:	00551793          	slli	a5,a0,0x5
    144c:	40a787b3          	sub	a5,a5,a0
    1450:	00279793          	slli	a5,a5,0x2
    1454:	00a787b3          	add	a5,a5,a0
    1458:	00379793          	slli	a5,a5,0x3
    145c:	40c7d513          	srai	a0,a5,0xc
    1460:	2e4010ef          	jal	ra,2744 <__divsi3>
    1464:	00c12703          	lw	a4,12(sp)
    1468:	aca408a3          	sb	a0,-1327(s0) # 3ad1 <humedad>
    146c:	00003537          	lui	a0,0x3
    1470:	0a700613          	li	a2,167
    1474:	0ff77593          	zext.b	a1,a4
    1478:	a3450513          	addi	a0,a0,-1484 # 2a34 <main+0x23c>
    147c:	be8ff0ef          	jal	ra,864 <_printf>
    1480:	00812583          	lw	a1,8(sp)
    1484:	00003537          	lui	a0,0x3
    1488:	a4850513          	addi	a0,a0,-1464 # 2a48 <main+0x250>
    148c:	bd8ff0ef          	jal	ra,864 <_printf>
    1490:	ad24d583          	lhu	a1,-1326(s1)
    1494:	00003537          	lui	a0,0x3
    1498:	a5850513          	addi	a0,a0,-1448 # 2a58 <main+0x260>
    149c:	bc8ff0ef          	jal	ra,864 <_printf>
    14a0:	ad144583          	lbu	a1,-1327(s0)
    14a4:	02412403          	lw	s0,36(sp)
    14a8:	02812083          	lw	ra,40(sp)
    14ac:	02012483          	lw	s1,32(sp)
    14b0:	00003537          	lui	a0,0x3
    14b4:	02500613          	li	a2,37
    14b8:	a7050513          	addi	a0,a0,-1424 # 2a70 <main+0x278>
    14bc:	02c10113          	addi	sp,sp,44
    14c0:	ba4ff06f          	j	864 <_printf>
    14c4:	00048593          	mv	a1,s1
    14c8:	00151513          	slli	a0,a0,0x1
    14cc:	280010ef          	jal	ra,274c <__hidden___udivsi3>
    14d0:	00050693          	mv	a3,a0
    14d4:	da1ff06f          	j	1274 <measureBME680+0x1c8>

000014d8 <ReadDust>:
    14d8:	e0000737          	lui	a4,0xe0000
    14dc:	01800793          	li	a5,24
    14e0:	08f70023          	sb	a5,128(a4) # e0000080 <_ebss+0xdfffc59c>
    14e4:	00300693          	li	a3,3
    14e8:	000047b7          	lui	a5,0x4
    14ec:	acd78e23          	sb	a3,-1316(a5) # 3adc <clkMode>
    14f0:	0002b7b7          	lui	a5,0x2b
    14f4:	8a078793          	addi	a5,a5,-1888 # 2a8a0 <_ebss+0x26dbc>
    14f8:	06f72023          	sw	a5,96(a4)
    14fc:	00008067          	ret

00001500 <ReadGAS>:
    1500:	00003537          	lui	a0,0x3
    1504:	ff410113          	addi	sp,sp,-12
    1508:	a8050513          	addi	a0,a0,-1408 # 2a80 <main+0x288>
    150c:	00112423          	sw	ra,8(sp)
    1510:	b54ff0ef          	jal	ra,864 <_printf>
    1514:	00812083          	lw	ra,8(sp)
    1518:	000047b7          	lui	a5,0x4
    151c:	00100713          	li	a4,1
    1520:	ace78e23          	sb	a4,-1316(a5) # 3adc <clkMode>
    1524:	00c10113          	addi	sp,sp,12
    1528:	00008067          	ret

0000152c <printCO>:
    152c:	000047b7          	lui	a5,0x4
    1530:	ad67d583          	lhu	a1,-1322(a5) # 3ad6 <COValue>
    1534:	00003537          	lui	a0,0x3
    1538:	af050513          	addi	a0,a0,-1296 # 2af0 <main+0x2f8>
    153c:	b28ff06f          	j	864 <_printf>

00001540 <printDust>:
    1540:	000047b7          	lui	a5,0x4
    1544:	ad47d583          	lhu	a1,-1324(a5) # 3ad4 <polvoValue>
    1548:	00003537          	lui	a0,0x3
    154c:	b0450513          	addi	a0,a0,-1276 # 2b04 <main+0x30c>
    1550:	b14ff06f          	j	864 <_printf>

00001554 <printCh4LPG>:
    1554:	000047b7          	lui	a5,0x4
    1558:	ad87d583          	lhu	a1,-1320(a5) # 3ad8 <Ch4LPGValue>
    155c:	00003537          	lui	a0,0x3
    1560:	b1c50513          	addi	a0,a0,-1252 # 2b1c <main+0x324>
    1564:	b00ff06f          	j	864 <_printf>

00001568 <getw>:
    1568:	ff410113          	addi	sp,sp,-12
    156c:	00112423          	sw	ra,8(sp)
    1570:	00812223          	sw	s0,4(sp)
    1574:	00912023          	sw	s1,0(sp)
    1578:	b60ff0ef          	jal	ra,8d8 <_getch>
    157c:	00050493          	mv	s1,a0
    1580:	b58ff0ef          	jal	ra,8d8 <_getch>
    1584:	00050413          	mv	s0,a0
    1588:	b50ff0ef          	jal	ra,8d8 <_getch>
    158c:	01051513          	slli	a0,a0,0x10
    1590:	00841413          	slli	s0,s0,0x8
    1594:	00a46433          	or	s0,s0,a0
    1598:	b40ff0ef          	jal	ra,8d8 <_getch>
    159c:	00946433          	or	s0,s0,s1
    15a0:	01851513          	slli	a0,a0,0x18
    15a4:	00812083          	lw	ra,8(sp)
    15a8:	00856533          	or	a0,a0,s0
    15ac:	00412403          	lw	s0,4(sp)
    15b0:	00012483          	lw	s1,0(sp)
    15b4:	00c10113          	addi	sp,sp,12
    15b8:	00008067          	ret

000015bc <_memcpy>:
    15bc:	02060263          	beqz	a2,15e0 <_memcpy+0x24>
    15c0:	00000793          	li	a5,0
    15c4:	00f58733          	add	a4,a1,a5
    15c8:	00074683          	lbu	a3,0(a4)
    15cc:	00f50733          	add	a4,a0,a5
    15d0:	00178793          	addi	a5,a5,1
    15d4:	00d70023          	sb	a3,0(a4)
    15d8:	fec796e3          	bne	a5,a2,15c4 <_memcpy+0x8>
    15dc:	00f50533          	add	a0,a0,a5
    15e0:	00008067          	ret

000015e4 <cnc>:
    15e4:	ff410113          	addi	sp,sp,-12
    15e8:	00112423          	sw	ra,8(sp)
    15ec:	00812223          	sw	s0,4(sp)
    15f0:	00912023          	sw	s1,0(sp)
    15f4:	00058413          	mv	s0,a1
    15f8:	00050493          	mv	s1,a0
    15fc:	a44ff0ef          	jal	ra,840 <_sizeof>
    1600:	00050613          	mv	a2,a0
    1604:	00048593          	mv	a1,s1
    1608:	00048513          	mv	a0,s1
    160c:	fb1ff0ef          	jal	ra,15bc <_memcpy>
    1610:	00050493          	mv	s1,a0
    1614:	00040513          	mv	a0,s0
    1618:	a28ff0ef          	jal	ra,840 <_sizeof>
    161c:	00050613          	mv	a2,a0
    1620:	00040593          	mv	a1,s0
    1624:	fff48513          	addi	a0,s1,-1
    1628:	f95ff0ef          	jal	ra,15bc <_memcpy>
    162c:	00812083          	lw	ra,8(sp)
    1630:	00412403          	lw	s0,4(sp)
    1634:	00012483          	lw	s1,0(sp)
    1638:	fff50513          	addi	a0,a0,-1
    163c:	00c10113          	addi	sp,sp,12
    1640:	00008067          	ret

00001644 <_getch1>:
    1644:	00004737          	lui	a4,0x4
    1648:	00004637          	lui	a2,0x4
    164c:	ae074683          	lbu	a3,-1312(a4) # 3ae0 <rdix1>
    1650:	adf64783          	lbu	a5,-1313(a2) # 3adf <wrix1>
    1654:	fef68ce3          	beq	a3,a5,164c <_getch1+0x8>
    1658:	ae074683          	lbu	a3,-1312(a4)
    165c:	00168793          	addi	a5,a3,1 # 40000001 <_ebss+0x3fffc51d>
    1660:	0ff7f793          	zext.b	a5,a5
    1664:	aef70023          	sb	a5,-1312(a4)
    1668:	000047b7          	lui	a5,0x4
    166c:	84878793          	addi	a5,a5,-1976 # 3848 <udat0>
    1670:	00d787b3          	add	a5,a5,a3
    1674:	ae074683          	lbu	a3,-1312(a4)
    1678:	0207c503          	lbu	a0,32(a5)
    167c:	07f6f693          	andi	a3,a3,127
    1680:	aed70023          	sb	a3,-1312(a4)
    1684:	00008067          	ret

00001688 <_putch2>:
    1688:	e0000737          	lui	a4,0xe0000
    168c:	00c72783          	lw	a5,12(a4) # e000000c <_ebss+0xdfffc528>
    1690:	0027f793          	andi	a5,a5,2
    1694:	fe078ce3          	beqz	a5,168c <_putch2+0x4>
    1698:	0ff57513          	zext.b	a0,a0
    169c:	00a70423          	sb	a0,8(a4)
    16a0:	00008067          	ret

000016a4 <spiLoRAxfer>:
    16a4:	e00007b7          	lui	a5,0xe0000
    16a8:	02a7a823          	sw	a0,48(a5) # e0000030 <_ebss+0xdfffc54c>
    16ac:	e0000737          	lui	a4,0xe0000
    16b0:	03472783          	lw	a5,52(a4) # e0000034 <_ebss+0xdfffc550>
    16b4:	0017f793          	andi	a5,a5,1
    16b8:	fe079ce3          	bnez	a5,16b0 <spiLoRAxfer+0xc>
    16bc:	03072503          	lw	a0,48(a4)
    16c0:	0ff57513          	zext.b	a0,a0
    16c4:	00008067          	ret

000016c8 <readLoRA>:
    16c8:	ff410113          	addi	sp,sp,-12
    16cc:	00112423          	sw	ra,8(sp)
    16d0:	00812223          	sw	s0,4(sp)
    16d4:	e0000437          	lui	s0,0xe0000
    16d8:	02042c23          	sw	zero,56(s0) # e0000038 <_ebss+0xdfffc554>
    16dc:	fc9ff0ef          	jal	ra,16a4 <spiLoRAxfer>
    16e0:	00000513          	li	a0,0
    16e4:	fc1ff0ef          	jal	ra,16a4 <spiLoRAxfer>
    16e8:	00100793          	li	a5,1
    16ec:	00812083          	lw	ra,8(sp)
    16f0:	02f42c23          	sw	a5,56(s0)
    16f4:	00412403          	lw	s0,4(sp)
    16f8:	00c10113          	addi	sp,sp,12
    16fc:	00008067          	ret

00001700 <writeLoRA>:
    1700:	ff410113          	addi	sp,sp,-12
    1704:	00112423          	sw	ra,8(sp)
    1708:	00812223          	sw	s0,4(sp)
    170c:	00912023          	sw	s1,0(sp)
    1710:	e00004b7          	lui	s1,0xe0000
    1714:	00050413          	mv	s0,a0
    1718:	0204ac23          	sw	zero,56(s1) # e0000038 <_ebss+0xdfffc554>
    171c:	0805e513          	ori	a0,a1,128
    1720:	f85ff0ef          	jal	ra,16a4 <spiLoRAxfer>
    1724:	00040513          	mv	a0,s0
    1728:	f7dff0ef          	jal	ra,16a4 <spiLoRAxfer>
    172c:	00812083          	lw	ra,8(sp)
    1730:	00412403          	lw	s0,4(sp)
    1734:	00100793          	li	a5,1
    1738:	02f4ac23          	sw	a5,56(s1)
    173c:	00012483          	lw	s1,0(sp)
    1740:	00c10113          	addi	sp,sp,12
    1744:	00008067          	ret

00001748 <printLoRaRegs>:
    1748:	00003537          	lui	a0,0x3
    174c:	ff010113          	addi	sp,sp,-16
    1750:	b3450513          	addi	a0,a0,-1228 # 2b34 <main+0x33c>
    1754:	00812423          	sw	s0,8(sp)
    1758:	00912223          	sw	s1,4(sp)
    175c:	00112623          	sw	ra,12(sp)
    1760:	00000413          	li	s0,0
    1764:	8a8ff0ef          	jal	ra,80c <_puts>
    1768:	000034b7          	lui	s1,0x3
    176c:	00000793          	li	a5,0
    1770:	00f40533          	add	a0,s0,a5
    1774:	0ff57513          	zext.b	a0,a0
    1778:	00f12023          	sw	a5,0(sp)
    177c:	f4dff0ef          	jal	ra,16c8 <readLoRA>
    1780:	00050593          	mv	a1,a0
    1784:	a2c48513          	addi	a0,s1,-1492 # 2a2c <main+0x234>
    1788:	8dcff0ef          	jal	ra,864 <_printf>
    178c:	00012783          	lw	a5,0(sp)
    1790:	01000713          	li	a4,16
    1794:	00178793          	addi	a5,a5,1
    1798:	fce79ce3          	bne	a5,a4,1770 <printLoRaRegs+0x28>
    179c:	00003537          	lui	a0,0x3
    17a0:	1d850513          	addi	a0,a0,472 # 31d8 <main+0x9e0>
    17a4:	868ff0ef          	jal	ra,80c <_puts>
    17a8:	01040413          	addi	s0,s0,16
    17ac:	0ff47413          	zext.b	s0,s0
    17b0:	08000793          	li	a5,128
    17b4:	faf41ce3          	bne	s0,a5,176c <printLoRaRegs+0x24>
    17b8:	00c12083          	lw	ra,12(sp)
    17bc:	00812403          	lw	s0,8(sp)
    17c0:	00412483          	lw	s1,4(sp)
    17c4:	01010113          	addi	sp,sp,16
    17c8:	00008067          	ret

000017cc <setModemRegisters>:
    17cc:	ff410113          	addi	sp,sp,-12
    17d0:	01d00593          	li	a1,29
    17d4:	07200513          	li	a0,114
    17d8:	00112423          	sw	ra,8(sp)
    17dc:	f25ff0ef          	jal	ra,1700 <writeLoRA>
    17e0:	01d00593          	li	a1,29
    17e4:	07200513          	li	a0,114
    17e8:	f19ff0ef          	jal	ra,1700 <writeLoRA>
    17ec:	01e00593          	li	a1,30
    17f0:	07400513          	li	a0,116
    17f4:	f0dff0ef          	jal	ra,1700 <writeLoRA>
    17f8:	00812083          	lw	ra,8(sp)
    17fc:	02600593          	li	a1,38
    1800:	00400513          	li	a0,4
    1804:	00c10113          	addi	sp,sp,12
    1808:	ef9ff06f          	j	1700 <writeLoRA>

0000180c <setPreambleLength>:
    180c:	ff410113          	addi	sp,sp,-12
    1810:	00812223          	sw	s0,4(sp)
    1814:	02000593          	li	a1,32
    1818:	00050413          	mv	s0,a0
    181c:	00855513          	srli	a0,a0,0x8
    1820:	00112423          	sw	ra,8(sp)
    1824:	eddff0ef          	jal	ra,1700 <writeLoRA>
    1828:	0ff47513          	zext.b	a0,s0
    182c:	00412403          	lw	s0,4(sp)
    1830:	00812083          	lw	ra,8(sp)
    1834:	02100593          	li	a1,33
    1838:	00c10113          	addi	sp,sp,12
    183c:	ec5ff06f          	j	1700 <writeLoRA>

00001840 <setFrequency868>:
    1840:	ff410113          	addi	sp,sp,-12
    1844:	00600593          	li	a1,6
    1848:	0d900513          	li	a0,217
    184c:	00112423          	sw	ra,8(sp)
    1850:	eb1ff0ef          	jal	ra,1700 <writeLoRA>
    1854:	00700593          	li	a1,7
    1858:	00000513          	li	a0,0
    185c:	ea5ff0ef          	jal	ra,1700 <writeLoRA>
    1860:	00812083          	lw	ra,8(sp)
    1864:	00800593          	li	a1,8
    1868:	00000513          	li	a0,0
    186c:	00c10113          	addi	sp,sp,12
    1870:	e91ff06f          	j	1700 <writeLoRA>

00001874 <loraSend>:
    1874:	ff410113          	addi	sp,sp,-12
    1878:	00112423          	sw	ra,8(sp)
    187c:	00812223          	sw	s0,4(sp)
    1880:	00912023          	sw	s1,0(sp)
    1884:	00050413          	mv	s0,a0
    1888:	fb9fe0ef          	jal	ra,840 <_sizeof>
    188c:	00100593          	li	a1,1
    1890:	08100513          	li	a0,129
    1894:	e6dff0ef          	jal	ra,1700 <writeLoRA>
    1898:	00d00593          	li	a1,13
    189c:	00000513          	li	a0,0
    18a0:	e61ff0ef          	jal	ra,1700 <writeLoRA>
    18a4:	02200593          	li	a1,34
    18a8:	01800513          	li	a0,24
    18ac:	e55ff0ef          	jal	ra,1700 <writeLoRA>
    18b0:	00000593          	li	a1,0
    18b4:	0ff00513          	li	a0,255
    18b8:	e49ff0ef          	jal	ra,1700 <writeLoRA>
    18bc:	00000593          	li	a1,0
    18c0:	0ff00513          	li	a0,255
    18c4:	e3dff0ef          	jal	ra,1700 <writeLoRA>
    18c8:	00000593          	li	a1,0
    18cc:	00000513          	li	a0,0
    18d0:	e31ff0ef          	jal	ra,1700 <writeLoRA>
    18d4:	00000593          	li	a1,0
    18d8:	00000513          	li	a0,0
    18dc:	e25ff0ef          	jal	ra,1700 <writeLoRA>
    18e0:	00003537          	lui	a0,0x3
    18e4:	b5050513          	addi	a0,a0,-1200 # 2b50 <main+0x358>
    18e8:	f25fe0ef          	jal	ra,80c <_puts>
    18ec:	01440493          	addi	s1,s0,20
    18f0:	00044503          	lbu	a0,0(s0)
    18f4:	00140413          	addi	s0,s0,1
    18f8:	00000593          	li	a1,0
    18fc:	e05ff0ef          	jal	ra,1700 <writeLoRA>
    1900:	fe8498e3          	bne	s1,s0,18f0 <loraSend+0x7c>
    1904:	00100593          	li	a1,1
    1908:	08300513          	li	a0,131
    190c:	df5ff0ef          	jal	ra,1700 <writeLoRA>
    1910:	00001537          	lui	a0,0x1
    1914:	76650513          	addi	a0,a0,1894 # 1766 <printLoRaRegs+0x1e>
    1918:	f48fe0ef          	jal	ra,60 <delay_loop>
    191c:	00003437          	lui	s0,0x3
    1920:	00100513          	li	a0,1
    1924:	da5ff0ef          	jal	ra,16c8 <readLoRA>
    1928:	08300793          	li	a5,131
    192c:	00f51c63          	bne	a0,a5,1944 <loraSend+0xd0>
    1930:	b6040513          	addi	a0,s0,-1184 # 2b60 <main+0x368>
    1934:	ed9fe0ef          	jal	ra,80c <_puts>
    1938:	00001537          	lui	a0,0x1
    193c:	76650513          	addi	a0,a0,1894 # 1766 <printLoRaRegs+0x1e>
    1940:	f20fe0ef          	jal	ra,60 <delay_loop>
    1944:	00100513          	li	a0,1
    1948:	d81ff0ef          	jal	ra,16c8 <readLoRA>
    194c:	08100793          	li	a5,129
    1950:	fcf518e3          	bne	a0,a5,1920 <loraSend+0xac>
    1954:	00003537          	lui	a0,0x3
    1958:	b6450513          	addi	a0,a0,-1180 # 2b64 <main+0x36c>
    195c:	eb1fe0ef          	jal	ra,80c <_puts>
    1960:	01200593          	li	a1,18
    1964:	0ff00513          	li	a0,255
    1968:	d99ff0ef          	jal	ra,1700 <writeLoRA>
    196c:	00412403          	lw	s0,4(sp)
    1970:	00812083          	lw	ra,8(sp)
    1974:	00012483          	lw	s1,0(sp)
    1978:	00d00593          	li	a1,13
    197c:	00000513          	li	a0,0
    1980:	00c10113          	addi	sp,sp,12
    1984:	d7dff06f          	j	1700 <writeLoRA>

00001988 <loraInit>:
    1988:	ff410113          	addi	sp,sp,-12
    198c:	00100593          	li	a1,1
    1990:	08000513          	li	a0,128
    1994:	00112423          	sw	ra,8(sp)
    1998:	d69ff0ef          	jal	ra,1700 <writeLoRA>
    199c:	00100513          	li	a0,1
    19a0:	d29ff0ef          	jal	ra,16c8 <readLoRA>
    19a4:	08000793          	li	a5,128
    19a8:	02f50063          	beq	a0,a5,19c8 <loraInit+0x40>
    19ac:	00003537          	lui	a0,0x3
    19b0:	b8050513          	addi	a0,a0,-1152 # 2b80 <main+0x388>
    19b4:	e59fe0ef          	jal	ra,80c <_puts>
    19b8:	00812083          	lw	ra,8(sp)
    19bc:	00000513          	li	a0,0
    19c0:	00c10113          	addi	sp,sp,12
    19c4:	00008067          	ret
    19c8:	00e00593          	li	a1,14
    19cc:	00000513          	li	a0,0
    19d0:	d31ff0ef          	jal	ra,1700 <writeLoRA>
    19d4:	00f00593          	li	a1,15
    19d8:	00000513          	li	a0,0
    19dc:	d25ff0ef          	jal	ra,1700 <writeLoRA>
    19e0:	00100593          	li	a1,1
    19e4:	08100513          	li	a0,129
    19e8:	d19ff0ef          	jal	ra,1700 <writeLoRA>
    19ec:	de1ff0ef          	jal	ra,17cc <setModemRegisters>
    19f0:	00800513          	li	a0,8
    19f4:	e19ff0ef          	jal	ra,180c <setPreambleLength>
    19f8:	e49ff0ef          	jal	ra,1840 <setFrequency868>
    19fc:	00900593          	li	a1,9
    1a00:	0ad00513          	li	a0,173
    1a04:	cfdff0ef          	jal	ra,1700 <writeLoRA>
    1a08:	fb1ff06f          	j	19b8 <loraInit+0x30>

00001a0c <transmitPRAOFrame>:
    1a0c:	ff010113          	addi	sp,sp,-16
    1a10:	00112623          	sw	ra,12(sp)
    1a14:	00812423          	sw	s0,8(sp)
    1a18:	00912223          	sw	s1,4(sp)
    1a1c:	f6dff0ef          	jal	ra,1988 <loraInit>
    1a20:	00003537          	lui	a0,0x3
    1a24:	b9450513          	addi	a0,a0,-1132 # 2b94 <main+0x39c>
    1a28:	e4dff0ef          	jal	ra,1874 <loraSend>
    1a2c:	00003437          	lui	s0,0x3
    1a30:	ba840513          	addi	a0,s0,-1112 # 2ba8 <main+0x3b0>
    1a34:	e0dfe0ef          	jal	ra,840 <_sizeof>
    1a38:	ba840593          	addi	a1,s0,-1112
    1a3c:	00003437          	lui	s0,0x3
    1a40:	00050613          	mv	a2,a0
    1a44:	cf440513          	addi	a0,s0,-780 # 2cf4 <main+0x4fc>
    1a48:	b75ff0ef          	jal	ra,15bc <_memcpy>
    1a4c:	000045b7          	lui	a1,0x4
    1a50:	84858793          	addi	a5,a1,-1976 # 3848 <udat0>
    1a54:	22078593          	addi	a1,a5,544
    1a58:	00050493          	mv	s1,a0
    1a5c:	00058513          	mv	a0,a1
    1a60:	de1fe0ef          	jal	ra,840 <_sizeof>
    1a64:	000047b7          	lui	a5,0x4
    1a68:	a6878593          	addi	a1,a5,-1432 # 3a68 <UTC_time>
    1a6c:	00050613          	mv	a2,a0
    1a70:	fff48513          	addi	a0,s1,-1
    1a74:	b49ff0ef          	jal	ra,15bc <_memcpy>
    1a78:	cf440513          	addi	a0,s0,-780
    1a7c:	df9ff0ef          	jal	ra,1874 <loraSend>
    1a80:	cf440513          	addi	a0,s0,-780
    1a84:	000034b7          	lui	s1,0x3
    1a88:	d85fe0ef          	jal	ra,80c <_puts>
    1a8c:	1d848513          	addi	a0,s1,472 # 31d8 <main+0x9e0>
    1a90:	d7dfe0ef          	jal	ra,80c <_puts>
    1a94:	000035b7          	lui	a1,0x3
    1a98:	bb858513          	addi	a0,a1,-1096 # 2bb8 <main+0x3c0>
    1a9c:	da5fe0ef          	jal	ra,840 <_sizeof>
    1aa0:	000035b7          	lui	a1,0x3
    1aa4:	00050613          	mv	a2,a0
    1aa8:	bb858593          	addi	a1,a1,-1096 # 2bb8 <main+0x3c0>
    1aac:	cf440513          	addi	a0,s0,-780
    1ab0:	b0dff0ef          	jal	ra,15bc <_memcpy>
    1ab4:	000047b7          	lui	a5,0x4
    1ab8:	84878793          	addi	a5,a5,-1976 # 3848 <udat0>
    1abc:	22c78593          	addi	a1,a5,556
    1ac0:	00a12023          	sw	a0,0(sp)
    1ac4:	00058513          	mv	a0,a1
    1ac8:	d79fe0ef          	jal	ra,840 <_sizeof>
    1acc:	00012703          	lw	a4,0(sp)
    1ad0:	000047b7          	lui	a5,0x4
    1ad4:	00050613          	mv	a2,a0
    1ad8:	a7478593          	addi	a1,a5,-1420 # 3a74 <date>
    1adc:	fff70513          	addi	a0,a4,-1
    1ae0:	addff0ef          	jal	ra,15bc <_memcpy>
    1ae4:	cf440513          	addi	a0,s0,-780
    1ae8:	d8dff0ef          	jal	ra,1874 <loraSend>
    1aec:	cf440513          	addi	a0,s0,-780
    1af0:	d1dfe0ef          	jal	ra,80c <_puts>
    1af4:	1d848513          	addi	a0,s1,472
    1af8:	d15fe0ef          	jal	ra,80c <_puts>
    1afc:	000047b7          	lui	a5,0x4
    1b00:	8437c503          	lbu	a0,-1981(a5) # 3843 <temp>
    1b04:	00000593          	li	a1,0
    1b08:	f15fe0ef          	jal	ra,a1c <my_itoa>
    1b0c:	000035b7          	lui	a1,0x3
    1b10:	bc458513          	addi	a0,a1,-1084 # 2bc4 <main+0x3cc>
    1b14:	d2dfe0ef          	jal	ra,840 <_sizeof>
    1b18:	000035b7          	lui	a1,0x3
    1b1c:	00050613          	mv	a2,a0
    1b20:	bc458593          	addi	a1,a1,-1084 # 2bc4 <main+0x3cc>
    1b24:	cf440513          	addi	a0,s0,-780
    1b28:	a95ff0ef          	jal	ra,15bc <_memcpy>
    1b2c:	00a12023          	sw	a0,0(sp)
    1b30:	00000513          	li	a0,0
    1b34:	d0dfe0ef          	jal	ra,840 <_sizeof>
    1b38:	00012783          	lw	a5,0(sp)
    1b3c:	00050613          	mv	a2,a0
    1b40:	00000593          	li	a1,0
    1b44:	fff78513          	addi	a0,a5,-1
    1b48:	a75ff0ef          	jal	ra,15bc <_memcpy>
    1b4c:	000035b7          	lui	a1,0x3
    1b50:	00a12023          	sw	a0,0(sp)
    1b54:	bd058513          	addi	a0,a1,-1072 # 2bd0 <main+0x3d8>
    1b58:	ce9fe0ef          	jal	ra,840 <_sizeof>
    1b5c:	00012783          	lw	a5,0(sp)
    1b60:	000035b7          	lui	a1,0x3
    1b64:	00050613          	mv	a2,a0
    1b68:	bd058593          	addi	a1,a1,-1072 # 2bd0 <main+0x3d8>
    1b6c:	fff78513          	addi	a0,a5,-1
    1b70:	a4dff0ef          	jal	ra,15bc <_memcpy>
    1b74:	cf440513          	addi	a0,s0,-780
    1b78:	cfdff0ef          	jal	ra,1874 <loraSend>
    1b7c:	cf440513          	addi	a0,s0,-780
    1b80:	c8dfe0ef          	jal	ra,80c <_puts>
    1b84:	1d848513          	addi	a0,s1,472
    1b88:	c85fe0ef          	jal	ra,80c <_puts>
    1b8c:	000047b7          	lui	a5,0x4
    1b90:	ad17c503          	lbu	a0,-1327(a5) # 3ad1 <humedad>
    1b94:	00000593          	li	a1,0
    1b98:	e85fe0ef          	jal	ra,a1c <my_itoa>
    1b9c:	000035b7          	lui	a1,0x3
    1ba0:	bd458513          	addi	a0,a1,-1068 # 2bd4 <main+0x3dc>
    1ba4:	c9dfe0ef          	jal	ra,840 <_sizeof>
    1ba8:	000035b7          	lui	a1,0x3
    1bac:	00050613          	mv	a2,a0
    1bb0:	bd458593          	addi	a1,a1,-1068 # 2bd4 <main+0x3dc>
    1bb4:	cf440513          	addi	a0,s0,-780
    1bb8:	a05ff0ef          	jal	ra,15bc <_memcpy>
    1bbc:	00a12023          	sw	a0,0(sp)
    1bc0:	00000513          	li	a0,0
    1bc4:	c7dfe0ef          	jal	ra,840 <_sizeof>
    1bc8:	00012783          	lw	a5,0(sp)
    1bcc:	00050613          	mv	a2,a0
    1bd0:	00000593          	li	a1,0
    1bd4:	fff78513          	addi	a0,a5,-1
    1bd8:	9e5ff0ef          	jal	ra,15bc <_memcpy>
    1bdc:	000035b7          	lui	a1,0x3
    1be0:	00a12023          	sw	a0,0(sp)
    1be4:	be458513          	addi	a0,a1,-1052 # 2be4 <main+0x3ec>
    1be8:	c59fe0ef          	jal	ra,840 <_sizeof>
    1bec:	00012783          	lw	a5,0(sp)
    1bf0:	000035b7          	lui	a1,0x3
    1bf4:	00050613          	mv	a2,a0
    1bf8:	be458593          	addi	a1,a1,-1052 # 2be4 <main+0x3ec>
    1bfc:	fff78513          	addi	a0,a5,-1
    1c00:	9bdff0ef          	jal	ra,15bc <_memcpy>
    1c04:	cf440513          	addi	a0,s0,-780
    1c08:	c05fe0ef          	jal	ra,80c <_puts>
    1c0c:	1d848513          	addi	a0,s1,472
    1c10:	bfdfe0ef          	jal	ra,80c <_puts>
    1c14:	cf440513          	addi	a0,s0,-780
    1c18:	c5dff0ef          	jal	ra,1874 <loraSend>
    1c1c:	000047b7          	lui	a5,0x4
    1c20:	ad27d503          	lhu	a0,-1326(a5) # 3ad2 <presion>
    1c24:	00000593          	li	a1,0
    1c28:	df5fe0ef          	jal	ra,a1c <my_itoa>
    1c2c:	000035b7          	lui	a1,0x3
    1c30:	be858513          	addi	a0,a1,-1048 # 2be8 <main+0x3f0>
    1c34:	c0dfe0ef          	jal	ra,840 <_sizeof>
    1c38:	000035b7          	lui	a1,0x3
    1c3c:	00050613          	mv	a2,a0
    1c40:	be858593          	addi	a1,a1,-1048 # 2be8 <main+0x3f0>
    1c44:	cf440513          	addi	a0,s0,-780
    1c48:	975ff0ef          	jal	ra,15bc <_memcpy>
    1c4c:	00a12023          	sw	a0,0(sp)
    1c50:	00000513          	li	a0,0
    1c54:	bedfe0ef          	jal	ra,840 <_sizeof>
    1c58:	00012783          	lw	a5,0(sp)
    1c5c:	00050613          	mv	a2,a0
    1c60:	00000593          	li	a1,0
    1c64:	fff78513          	addi	a0,a5,-1
    1c68:	955ff0ef          	jal	ra,15bc <_memcpy>
    1c6c:	000035b7          	lui	a1,0x3
    1c70:	00a12023          	sw	a0,0(sp)
    1c74:	bf858513          	addi	a0,a1,-1032 # 2bf8 <main+0x400>
    1c78:	bc9fe0ef          	jal	ra,840 <_sizeof>
    1c7c:	00012783          	lw	a5,0(sp)
    1c80:	000035b7          	lui	a1,0x3
    1c84:	00050613          	mv	a2,a0
    1c88:	bf858593          	addi	a1,a1,-1032 # 2bf8 <main+0x400>
    1c8c:	fff78513          	addi	a0,a5,-1
    1c90:	92dff0ef          	jal	ra,15bc <_memcpy>
    1c94:	cf440513          	addi	a0,s0,-780
    1c98:	b75fe0ef          	jal	ra,80c <_puts>
    1c9c:	1d848513          	addi	a0,s1,472
    1ca0:	b6dfe0ef          	jal	ra,80c <_puts>
    1ca4:	cf440513          	addi	a0,s0,-780
    1ca8:	bcdff0ef          	jal	ra,1874 <loraSend>
    1cac:	000047b7          	lui	a5,0x4
    1cb0:	ad47d503          	lhu	a0,-1324(a5) # 3ad4 <polvoValue>
    1cb4:	00000593          	li	a1,0
    1cb8:	d65fe0ef          	jal	ra,a1c <my_itoa>
    1cbc:	000035b7          	lui	a1,0x3
    1cc0:	c0058513          	addi	a0,a1,-1024 # 2c00 <main+0x408>
    1cc4:	b7dfe0ef          	jal	ra,840 <_sizeof>
    1cc8:	000035b7          	lui	a1,0x3
    1ccc:	00050613          	mv	a2,a0
    1cd0:	c0058593          	addi	a1,a1,-1024 # 2c00 <main+0x408>
    1cd4:	cf440513          	addi	a0,s0,-780
    1cd8:	8e5ff0ef          	jal	ra,15bc <_memcpy>
    1cdc:	00a12023          	sw	a0,0(sp)
    1ce0:	00000513          	li	a0,0
    1ce4:	b5dfe0ef          	jal	ra,840 <_sizeof>
    1ce8:	00012783          	lw	a5,0(sp)
    1cec:	00050613          	mv	a2,a0
    1cf0:	00000593          	li	a1,0
    1cf4:	fff78513          	addi	a0,a5,-1
    1cf8:	8c5ff0ef          	jal	ra,15bc <_memcpy>
    1cfc:	000037b7          	lui	a5,0x3
    1d00:	00a12023          	sw	a0,0(sp)
    1d04:	c0c78513          	addi	a0,a5,-1012 # 2c0c <main+0x414>
    1d08:	b39fe0ef          	jal	ra,840 <_sizeof>
    1d0c:	000037b7          	lui	a5,0x3
    1d10:	c0c78593          	addi	a1,a5,-1012 # 2c0c <main+0x414>
    1d14:	00012783          	lw	a5,0(sp)
    1d18:	00050613          	mv	a2,a0
    1d1c:	fff78513          	addi	a0,a5,-1
    1d20:	89dff0ef          	jal	ra,15bc <_memcpy>
    1d24:	cf440513          	addi	a0,s0,-780
    1d28:	ae5fe0ef          	jal	ra,80c <_puts>
    1d2c:	1d848513          	addi	a0,s1,472
    1d30:	addfe0ef          	jal	ra,80c <_puts>
    1d34:	cf440513          	addi	a0,s0,-780
    1d38:	b3dff0ef          	jal	ra,1874 <loraSend>
    1d3c:	000047b7          	lui	a5,0x4
    1d40:	ad67d503          	lhu	a0,-1322(a5) # 3ad6 <COValue>
    1d44:	00000593          	li	a1,0
    1d48:	cd5fe0ef          	jal	ra,a1c <my_itoa>
    1d4c:	000035b7          	lui	a1,0x3
    1d50:	c1458513          	addi	a0,a1,-1004 # 2c14 <main+0x41c>
    1d54:	aedfe0ef          	jal	ra,840 <_sizeof>
    1d58:	000035b7          	lui	a1,0x3
    1d5c:	00050613          	mv	a2,a0
    1d60:	c1458593          	addi	a1,a1,-1004 # 2c14 <main+0x41c>
    1d64:	cf440513          	addi	a0,s0,-780
    1d68:	855ff0ef          	jal	ra,15bc <_memcpy>
    1d6c:	00a12023          	sw	a0,0(sp)
    1d70:	00000513          	li	a0,0
    1d74:	acdfe0ef          	jal	ra,840 <_sizeof>
    1d78:	00012783          	lw	a5,0(sp)
    1d7c:	00050613          	mv	a2,a0
    1d80:	00000593          	li	a1,0
    1d84:	fff78513          	addi	a0,a5,-1
    1d88:	835ff0ef          	jal	ra,15bc <_memcpy>
    1d8c:	000037b7          	lui	a5,0x3
    1d90:	00a12023          	sw	a0,0(sp)
    1d94:	c0c78513          	addi	a0,a5,-1012 # 2c0c <main+0x414>
    1d98:	aa9fe0ef          	jal	ra,840 <_sizeof>
    1d9c:	000037b7          	lui	a5,0x3
    1da0:	c0c78593          	addi	a1,a5,-1012 # 2c0c <main+0x414>
    1da4:	00012783          	lw	a5,0(sp)
    1da8:	00050613          	mv	a2,a0
    1dac:	fff78513          	addi	a0,a5,-1
    1db0:	80dff0ef          	jal	ra,15bc <_memcpy>
    1db4:	cf440513          	addi	a0,s0,-780
    1db8:	a55fe0ef          	jal	ra,80c <_puts>
    1dbc:	1d848513          	addi	a0,s1,472
    1dc0:	a4dfe0ef          	jal	ra,80c <_puts>
    1dc4:	cf440513          	addi	a0,s0,-780
    1dc8:	aadff0ef          	jal	ra,1874 <loraSend>
    1dcc:	00004737          	lui	a4,0x4
    1dd0:	ad875503          	lhu	a0,-1320(a4) # 3ad8 <Ch4LPGValue>
    1dd4:	00000593          	li	a1,0
    1dd8:	c45fe0ef          	jal	ra,a1c <my_itoa>
    1ddc:	00003737          	lui	a4,0x3
    1de0:	c1c70513          	addi	a0,a4,-996 # 2c1c <main+0x424>
    1de4:	a5dfe0ef          	jal	ra,840 <_sizeof>
    1de8:	00003737          	lui	a4,0x3
    1dec:	c1c70593          	addi	a1,a4,-996 # 2c1c <main+0x424>
    1df0:	00050613          	mv	a2,a0
    1df4:	cf440513          	addi	a0,s0,-780
    1df8:	fc4ff0ef          	jal	ra,15bc <_memcpy>
    1dfc:	00a12023          	sw	a0,0(sp)
    1e00:	00000513          	li	a0,0
    1e04:	a3dfe0ef          	jal	ra,840 <_sizeof>
    1e08:	00012783          	lw	a5,0(sp)
    1e0c:	00050613          	mv	a2,a0
    1e10:	00000593          	li	a1,0
    1e14:	fff78513          	addi	a0,a5,-1
    1e18:	fa4ff0ef          	jal	ra,15bc <_memcpy>
    1e1c:	000037b7          	lui	a5,0x3
    1e20:	00a12023          	sw	a0,0(sp)
    1e24:	c0c78513          	addi	a0,a5,-1012 # 2c0c <main+0x414>
    1e28:	a19fe0ef          	jal	ra,840 <_sizeof>
    1e2c:	000037b7          	lui	a5,0x3
    1e30:	c0c78593          	addi	a1,a5,-1012 # 2c0c <main+0x414>
    1e34:	00012783          	lw	a5,0(sp)
    1e38:	00050613          	mv	a2,a0
    1e3c:	fff78513          	addi	a0,a5,-1
    1e40:	f7cff0ef          	jal	ra,15bc <_memcpy>
    1e44:	cf440513          	addi	a0,s0,-780
    1e48:	9c5fe0ef          	jal	ra,80c <_puts>
    1e4c:	1d848513          	addi	a0,s1,472
    1e50:	9bdfe0ef          	jal	ra,80c <_puts>
    1e54:	cf440513          	addi	a0,s0,-780
    1e58:	a1dff0ef          	jal	ra,1874 <loraSend>
    1e5c:	00004737          	lui	a4,0x4
    1e60:	ad875503          	lhu	a0,-1320(a4) # 3ad8 <Ch4LPGValue>
    1e64:	00000593          	li	a1,0
    1e68:	bb5fe0ef          	jal	ra,a1c <my_itoa>
    1e6c:	00003737          	lui	a4,0x3
    1e70:	c1c70513          	addi	a0,a4,-996 # 2c1c <main+0x424>
    1e74:	9cdfe0ef          	jal	ra,840 <_sizeof>
    1e78:	00003737          	lui	a4,0x3
    1e7c:	c1c70593          	addi	a1,a4,-996 # 2c1c <main+0x424>
    1e80:	00050613          	mv	a2,a0
    1e84:	cf440513          	addi	a0,s0,-780
    1e88:	f34ff0ef          	jal	ra,15bc <_memcpy>
    1e8c:	00a12023          	sw	a0,0(sp)
    1e90:	00000513          	li	a0,0
    1e94:	9adfe0ef          	jal	ra,840 <_sizeof>
    1e98:	00012783          	lw	a5,0(sp)
    1e9c:	00050613          	mv	a2,a0
    1ea0:	00000593          	li	a1,0
    1ea4:	fff78513          	addi	a0,a5,-1
    1ea8:	f14ff0ef          	jal	ra,15bc <_memcpy>
    1eac:	000037b7          	lui	a5,0x3
    1eb0:	00a12023          	sw	a0,0(sp)
    1eb4:	c0c78513          	addi	a0,a5,-1012 # 2c0c <main+0x414>
    1eb8:	989fe0ef          	jal	ra,840 <_sizeof>
    1ebc:	000037b7          	lui	a5,0x3
    1ec0:	c0c78593          	addi	a1,a5,-1012 # 2c0c <main+0x414>
    1ec4:	00012783          	lw	a5,0(sp)
    1ec8:	00050613          	mv	a2,a0
    1ecc:	fff78513          	addi	a0,a5,-1
    1ed0:	eecff0ef          	jal	ra,15bc <_memcpy>
    1ed4:	cf440513          	addi	a0,s0,-780
    1ed8:	935fe0ef          	jal	ra,80c <_puts>
    1edc:	1d848513          	addi	a0,s1,472
    1ee0:	92dfe0ef          	jal	ra,80c <_puts>
    1ee4:	cf440513          	addi	a0,s0,-780
    1ee8:	98dff0ef          	jal	ra,1874 <loraSend>
    1eec:	00812403          	lw	s0,8(sp)
    1ef0:	00c12083          	lw	ra,12(sp)
    1ef4:	00412483          	lw	s1,4(sp)
    1ef8:	00003537          	lui	a0,0x3
    1efc:	c2850513          	addi	a0,a0,-984 # 2c28 <main+0x430>
    1f00:	01010113          	addi	sp,sp,16
    1f04:	971ff06f          	j	1874 <loraSend>

00001f08 <strchr>:
    1f08:	00054783          	lbu	a5,0(a0)
    1f0c:	00078a63          	beqz	a5,1f20 <strchr+0x18>
    1f10:	00b79463          	bne	a5,a1,1f18 <strchr+0x10>
    1f14:	00008067          	ret
    1f18:	00150513          	addi	a0,a0,1
    1f1c:	fedff06f          	j	1f08 <strchr>
    1f20:	00058663          	beqz	a1,1f2c <strchr+0x24>
    1f24:	00003537          	lui	a0,0x3
    1f28:	96050513          	addi	a0,a0,-1696 # 2960 <main+0x168>
    1f2c:	00008067          	ret

00001f30 <parse_comma_delimited_str>:
    1f30:	ff010113          	addi	sp,sp,-16
    1f34:	00812423          	sw	s0,8(sp)
    1f38:	00912223          	sw	s1,4(sp)
    1f3c:	00112623          	sw	ra,12(sp)
    1f40:	00058493          	mv	s1,a1
    1f44:	00a5a023          	sw	a0,0(a1)
    1f48:	00100413          	li	s0,1
    1f4c:	02c45063          	bge	s0,a2,1f6c <parse_comma_delimited_str+0x3c>
    1f50:	02c00593          	li	a1,44
    1f54:	00c12023          	sw	a2,0(sp)
    1f58:	fb1ff0ef          	jal	ra,1f08 <strchr>
    1f5c:	00003737          	lui	a4,0x3
    1f60:	96070793          	addi	a5,a4,-1696 # 2960 <main+0x168>
    1f64:	00012603          	lw	a2,0(sp)
    1f68:	00f51e63          	bne	a0,a5,1f84 <parse_comma_delimited_str+0x54>
    1f6c:	00c12083          	lw	ra,12(sp)
    1f70:	fff40513          	addi	a0,s0,-1
    1f74:	00812403          	lw	s0,8(sp)
    1f78:	00412483          	lw	s1,4(sp)
    1f7c:	01010113          	addi	sp,sp,16
    1f80:	00008067          	ret
    1f84:	00241793          	slli	a5,s0,0x2
    1f88:	00050023          	sb	zero,0(a0)
    1f8c:	00f487b3          	add	a5,s1,a5
    1f90:	00150513          	addi	a0,a0,1
    1f94:	00a7a023          	sw	a0,0(a5)
    1f98:	00140413          	addi	s0,s0,1
    1f9c:	fb1ff06f          	j	1f4c <parse_comma_delimited_str+0x1c>

00001fa0 <strncmp>:
    1fa0:	00100793          	li	a5,1
    1fa4:	00700613          	li	a2,7
    1fa8:	00f506b3          	add	a3,a0,a5
    1fac:	00f58733          	add	a4,a1,a5
    1fb0:	0006c683          	lbu	a3,0(a3)
    1fb4:	fff74703          	lbu	a4,-1(a4)
    1fb8:	00e68663          	beq	a3,a4,1fc4 <strncmp+0x24>
    1fbc:	fff00513          	li	a0,-1
    1fc0:	00008067          	ret
    1fc4:	00178793          	addi	a5,a5,1
    1fc8:	fec790e3          	bne	a5,a2,1fa8 <strncmp+0x8>
    1fcc:	00000513          	li	a0,0
    1fd0:	00008067          	ret

00001fd4 <getGPSFrame>:
    1fd4:	00003537          	lui	a0,0x3
    1fd8:	f9810113          	addi	sp,sp,-104
    1fdc:	c3c50513          	addi	a0,a0,-964 # 2c3c <main+0x444>
    1fe0:	06812023          	sw	s0,96(sp)
    1fe4:	06112223          	sw	ra,100(sp)
    1fe8:	04912e23          	sw	s1,92(sp)
    1fec:	000105a3          	sb	zero,11(sp)
    1ff0:	81dfe0ef          	jal	ra,80c <_puts>
    1ff4:	000047b7          	lui	a5,0x4
    1ff8:	84878413          	addi	s0,a5,-1976 # 3848 <udat0>
    1ffc:	00004737          	lui	a4,0x4
    2000:	84474603          	lbu	a2,-1980(a4) # 3844 <GPS_FF>
    2004:	03000693          	li	a3,48
    2008:	2ad60a63          	beq	a2,a3,22bc <getGPSFrame+0x2e8>
    200c:	000035b7          	lui	a1,0x3
    2010:	c7458593          	addi	a1,a1,-908 # 2c74 <main+0x47c>
    2014:	23840513          	addi	a0,s0,568
    2018:	84d70223          	sb	a3,-1980(a4)
    201c:	f85ff0ef          	jal	ra,1fa0 <strncmp>
    2020:	000047b7          	lui	a5,0x4
    2024:	a8078793          	addi	a5,a5,-1408 # 3a80 <GPS_FRAME>
    2028:	00f12023          	sw	a5,0(sp)
    202c:	00050e63          	beqz	a0,2048 <getGPSFrame+0x74>
    2030:	000035b7          	lui	a1,0x3
    2034:	c7c58593          	addi	a1,a1,-900 # 2c7c <main+0x484>
    2038:	00078513          	mv	a0,a5
    203c:	f65ff0ef          	jal	ra,1fa0 <strncmp>
    2040:	00012223          	sw	zero,4(sp)
    2044:	14051263          	bnez	a0,2188 <getGPSFrame+0x1b4>
    2048:	00012503          	lw	a0,0(sp)
    204c:	01400613          	li	a2,20
    2050:	00c10593          	addi	a1,sp,12
    2054:	eddff0ef          	jal	ra,1f30 <parse_comma_delimited_str>
    2058:	00003537          	lui	a0,0x3
    205c:	c8450513          	addi	a0,a0,-892 # 2c84 <main+0x48c>
    2060:	facfe0ef          	jal	ra,80c <_puts>
    2064:	00003537          	lui	a0,0x3
    2068:	cb450513          	addi	a0,a0,-844 # 2cb4 <main+0x4bc>
    206c:	fa0fe0ef          	jal	ra,80c <_puts>
    2070:	00003537          	lui	a0,0x3
    2074:	cc450513          	addi	a0,a0,-828 # 2cc4 <main+0x4cc>
    2078:	f94fe0ef          	jal	ra,80c <_puts>
    207c:	01012483          	lw	s1,16(sp)
    2080:	0004c503          	lbu	a0,0(s1)
    2084:	93cfe0ef          	jal	ra,1c0 <_putch>
    2088:	0014c503          	lbu	a0,1(s1)
    208c:	934fe0ef          	jal	ra,1c0 <_putch>
    2090:	00003537          	lui	a0,0x3
    2094:	ccc50513          	addi	a0,a0,-820 # 2ccc <main+0x4d4>
    2098:	f74fe0ef          	jal	ra,80c <_puts>
    209c:	0024c503          	lbu	a0,2(s1)
    20a0:	920fe0ef          	jal	ra,1c0 <_putch>
    20a4:	0034c503          	lbu	a0,3(s1)
    20a8:	918fe0ef          	jal	ra,1c0 <_putch>
    20ac:	00003537          	lui	a0,0x3
    20b0:	cd850513          	addi	a0,a0,-808 # 2cd8 <main+0x4e0>
    20b4:	f58fe0ef          	jal	ra,80c <_puts>
    20b8:	0044c503          	lbu	a0,4(s1)
    20bc:	904fe0ef          	jal	ra,1c0 <_putch>
    20c0:	0054c503          	lbu	a0,5(s1)
    20c4:	8fcfe0ef          	jal	ra,1c0 <_putch>
    20c8:	00a00513          	li	a0,10
    20cc:	8f4fe0ef          	jal	ra,1c0 <_putch>
    20d0:	00003537          	lui	a0,0x3
    20d4:	ce850513          	addi	a0,a0,-792 # 2ce8 <main+0x4f0>
    20d8:	f34fe0ef          	jal	ra,80c <_puts>
    20dc:	01412503          	lw	a0,20(sp)
    20e0:	f2cfe0ef          	jal	ra,80c <_puts>
    20e4:	00a00513          	li	a0,10
    20e8:	8d8fe0ef          	jal	ra,1c0 <_putch>
    20ec:	00003537          	lui	a0,0x3
    20f0:	cf850513          	addi	a0,a0,-776 # 2cf8 <main+0x500>
    20f4:	f18fe0ef          	jal	ra,80c <_puts>
    20f8:	01c12503          	lw	a0,28(sp)
    20fc:	f10fe0ef          	jal	ra,80c <_puts>
    2100:	00a00513          	li	a0,10
    2104:	8bcfe0ef          	jal	ra,1c0 <_putch>
    2108:	00003537          	lui	a0,0x3
    210c:	d0850513          	addi	a0,a0,-760 # 2d08 <main+0x510>
    2110:	efcfe0ef          	jal	ra,80c <_puts>
    2114:	03012503          	lw	a0,48(sp)
    2118:	ef4fe0ef          	jal	ra,80c <_puts>
    211c:	00a00513          	li	a0,10
    2120:	8a0fe0ef          	jal	ra,1c0 <_putch>
    2124:	00003537          	lui	a0,0x3
    2128:	d1850513          	addi	a0,a0,-744 # 2d18 <main+0x520>
    212c:	ee0fe0ef          	jal	ra,80c <_puts>
    2130:	02812503          	lw	a0,40(sp)
    2134:	ed8fe0ef          	jal	ra,80c <_puts>
    2138:	00a00513          	li	a0,10
    213c:	884fe0ef          	jal	ra,1c0 <_putch>
    2140:	0004c703          	lbu	a4,0(s1)
    2144:	00100793          	li	a5,1
    2148:	00f12223          	sw	a5,4(sp)
    214c:	22e40023          	sb	a4,544(s0)
    2150:	0014c703          	lbu	a4,1(s1)
    2154:	22e400a3          	sb	a4,545(s0)
    2158:	03a00713          	li	a4,58
    215c:	22e40123          	sb	a4,546(s0)
    2160:	0024c683          	lbu	a3,2(s1)
    2164:	22d401a3          	sb	a3,547(s0)
    2168:	0034c683          	lbu	a3,3(s1)
    216c:	22e402a3          	sb	a4,549(s0)
    2170:	22d40223          	sb	a3,548(s0)
    2174:	0044c703          	lbu	a4,4(s1)
    2178:	22e40323          	sb	a4,550(s0)
    217c:	0054c703          	lbu	a4,5(s1)
    2180:	22040423          	sb	zero,552(s0)
    2184:	22e403a3          	sb	a4,551(s0)
    2188:	00012503          	lw	a0,0(sp)
    218c:	000035b7          	lui	a1,0x3
    2190:	d2858593          	addi	a1,a1,-728 # 2d28 <main+0x530>
    2194:	e0dff0ef          	jal	ra,1fa0 <strncmp>
    2198:	00050c63          	beqz	a0,21b0 <getGPSFrame+0x1dc>
    219c:	00012503          	lw	a0,0(sp)
    21a0:	000035b7          	lui	a1,0x3
    21a4:	d3058593          	addi	a1,a1,-720 # 2d30 <main+0x538>
    21a8:	df9ff0ef          	jal	ra,1fa0 <strncmp>
    21ac:	0e051063          	bnez	a0,228c <getGPSFrame+0x2b8>
    21b0:	00012503          	lw	a0,0(sp)
    21b4:	01400613          	li	a2,20
    21b8:	00c10593          	addi	a1,sp,12
    21bc:	d75ff0ef          	jal	ra,1f30 <parse_comma_delimited_str>
    21c0:	00003537          	lui	a0,0x3
    21c4:	d3850513          	addi	a0,a0,-712 # 2d38 <main+0x540>
    21c8:	e44fe0ef          	jal	ra,80c <_puts>
    21cc:	00003537          	lui	a0,0x3
    21d0:	d4450513          	addi	a0,a0,-700 # 2d44 <main+0x54c>
    21d4:	e38fe0ef          	jal	ra,80c <_puts>
    21d8:	03012483          	lw	s1,48(sp)
    21dc:	0004c503          	lbu	a0,0(s1)
    21e0:	fe1fd0ef          	jal	ra,1c0 <_putch>
    21e4:	0014c503          	lbu	a0,1(s1)
    21e8:	fd9fd0ef          	jal	ra,1c0 <_putch>
    21ec:	00003537          	lui	a0,0x3
    21f0:	d4c50513          	addi	a0,a0,-692 # 2d4c <main+0x554>
    21f4:	e18fe0ef          	jal	ra,80c <_puts>
    21f8:	0024c503          	lbu	a0,2(s1)
    21fc:	fc5fd0ef          	jal	ra,1c0 <_putch>
    2200:	0034c503          	lbu	a0,3(s1)
    2204:	fbdfd0ef          	jal	ra,1c0 <_putch>
    2208:	00003537          	lui	a0,0x3
    220c:	d5450513          	addi	a0,a0,-684 # 2d54 <main+0x55c>
    2210:	dfcfe0ef          	jal	ra,80c <_puts>
    2214:	0044c503          	lbu	a0,4(s1)
    2218:	fa9fd0ef          	jal	ra,1c0 <_putch>
    221c:	0054c503          	lbu	a0,5(s1)
    2220:	fa1fd0ef          	jal	ra,1c0 <_putch>
    2224:	00a00513          	li	a0,10
    2228:	f99fd0ef          	jal	ra,1c0 <_putch>
    222c:	00a00513          	li	a0,10
    2230:	f91fd0ef          	jal	ra,1c0 <_putch>
    2234:	00a00513          	li	a0,10
    2238:	f89fd0ef          	jal	ra,1c0 <_putch>
    223c:	0004c683          	lbu	a3,0(s1)
    2240:	00412783          	lw	a5,4(sp)
    2244:	22d40623          	sb	a3,556(s0)
    2248:	0014c683          	lbu	a3,1(s1)
    224c:	22d406a3          	sb	a3,557(s0)
    2250:	02d00693          	li	a3,45
    2254:	22d40723          	sb	a3,558(s0)
    2258:	0024c603          	lbu	a2,2(s1)
    225c:	22c407a3          	sb	a2,559(s0)
    2260:	0034c603          	lbu	a2,3(s1)
    2264:	22d408a3          	sb	a3,561(s0)
    2268:	22c40823          	sb	a2,560(s0)
    226c:	0044c683          	lbu	a3,4(s1)
    2270:	22d40923          	sb	a3,562(s0)
    2274:	0054c703          	lbu	a4,5(s1)
    2278:	00178493          	addi	s1,a5,1
    227c:	0ff4f793          	zext.b	a5,s1
    2280:	22e409a3          	sb	a4,563(s0)
    2284:	22040a23          	sb	zero,564(s0)
    2288:	00f12223          	sw	a5,4(sp)
    228c:	00000713          	li	a4,0
    2290:	00b14683          	lbu	a3,11(sp)
    2294:	fff68693          	addi	a3,a3,-1
    2298:	04d74663          	blt	a4,a3,22e4 <getGPSFrame+0x310>
    229c:	00412783          	lw	a5,4(sp)
    22a0:	d4078ee3          	beqz	a5,1ffc <getGPSFrame+0x28>
    22a4:	06412083          	lw	ra,100(sp)
    22a8:	06012403          	lw	s0,96(sp)
    22ac:	00b14503          	lbu	a0,11(sp)
    22b0:	05c12483          	lw	s1,92(sp)
    22b4:	06810113          	addi	sp,sp,104
    22b8:	00008067          	ret
    22bc:	00b14783          	lbu	a5,11(sp)
    22c0:	0ff7f493          	zext.b	s1,a5
    22c4:	b80ff0ef          	jal	ra,1644 <_getch1>
    22c8:	00b14703          	lbu	a4,11(sp)
    22cc:	009407b3          	add	a5,s0,s1
    22d0:	22a78c23          	sb	a0,568(a5)
    22d4:	00170713          	addi	a4,a4,1
    22d8:	0ff77713          	zext.b	a4,a4
    22dc:	00e105a3          	sb	a4,11(sp)
    22e0:	d1dff06f          	j	1ffc <getGPSFrame+0x28>
    22e4:	00012783          	lw	a5,0(sp)
    22e8:	00e786b3          	add	a3,a5,a4
    22ec:	00068023          	sb	zero,0(a3)
    22f0:	00170713          	addi	a4,a4,1
    22f4:	f9dff06f          	j	2290 <getGPSFrame+0x2bc>

000022f8 <GpinRead>:
    22f8:	00003537          	lui	a0,0x3
    22fc:	ff410113          	addi	sp,sp,-12
    2300:	d6050513          	addi	a0,a0,-672 # 2d60 <main+0x568>
    2304:	00112423          	sw	ra,8(sp)
    2308:	d04fe0ef          	jal	ra,80c <_puts>
    230c:	00003537          	lui	a0,0x3
    2310:	1dc50513          	addi	a0,a0,476 # 31dc <main+0x9e4>
    2314:	cf8fe0ef          	jal	ra,80c <_puts>
    2318:	e00007b7          	lui	a5,0xe0000
    231c:	0847c503          	lbu	a0,132(a5) # e0000084 <_ebss+0xdfffc5a0>
    2320:	e94fe0ef          	jal	ra,9b4 <_printfBin>
    2324:	00812083          	lw	ra,8(sp)
    2328:	00003537          	lui	a0,0x3
    232c:	1d850513          	addi	a0,a0,472 # 31d8 <main+0x9e0>
    2330:	00c10113          	addi	sp,sp,12
    2334:	cd8fe06f          	j	80c <_puts>

00002338 <test>:
    2338:	ff010113          	addi	sp,sp,-16
    233c:	00112623          	sw	ra,12(sp)
    2340:	00812423          	sw	s0,8(sp)
    2344:	00912223          	sw	s1,4(sp)
    2348:	e00004b7          	lui	s1,0xe0000
    234c:	0c04a023          	sw	zero,192(s1) # e00000c0 <_ebss+0xdfffc5dc>
    2350:	00003437          	lui	s0,0x3
    2354:	1e440513          	addi	a0,s0,484 # 31e4 <main+0x9ec>
    2358:	08048023          	sb	zero,128(s1)
    235c:	cb0fe0ef          	jal	ra,80c <_puts>
    2360:	00003537          	lui	a0,0x3
    2364:	37050513          	addi	a0,a0,880 # 3370 <main+0xb78>
    2368:	ca4fe0ef          	jal	ra,80c <_puts>
    236c:	00000073          	ecall
    2370:	00100073          	ebreak
    2374:	000017b7          	lui	a5,0x1
    2378:	80878793          	addi	a5,a5,-2040 # 808 <irq6_handler+0xa0>
    237c:	02f4a223          	sw	a5,36(s1)
    2380:	c8dfe0ef          	jal	ra,100c <startBME680>
    2384:	000017b7          	lui	a5,0x1
    2388:	80878793          	addi	a5,a5,-2040 # 808 <irq6_handler+0xa0>
    238c:	02f4aa23          	sw	a5,52(s1)
    2390:	00800793          	li	a5,8
    2394:	0cf4a023          	sw	a5,192(s1)
    2398:	0112b7b7          	lui	a5,0x112b
    239c:	88078793          	addi	a5,a5,-1920 # 112a880 <_ebss+0x1126d9c>
    23a0:	06f4a023          	sw	a5,96(s1)
    23a4:	000034b7          	lui	s1,0x3
    23a8:	e0000737          	lui	a4,0xe0000
    23ac:	0c072783          	lw	a5,192(a4) # e00000c0 <_ebss+0xdfffc5dc>
    23b0:	37c48513          	addi	a0,s1,892 # 337c <main+0xb84>
    23b4:	0027e793          	ori	a5,a5,2
    23b8:	0cf72023          	sw	a5,192(a4)
    23bc:	c50fe0ef          	jal	ra,80c <_puts>
    23c0:	00003537          	lui	a0,0x3
    23c4:	38c50513          	addi	a0,a0,908 # 338c <main+0xb94>
    23c8:	c44fe0ef          	jal	ra,80c <_puts>
    23cc:	00003537          	lui	a0,0x3
    23d0:	3bc50513          	addi	a0,a0,956 # 33bc <main+0xbc4>
    23d4:	c38fe0ef          	jal	ra,80c <_puts>
    23d8:	00003537          	lui	a0,0x3
    23dc:	3e850513          	addi	a0,a0,1000 # 33e8 <main+0xbf0>
    23e0:	c2cfe0ef          	jal	ra,80c <_puts>
    23e4:	00003537          	lui	a0,0x3
    23e8:	40850513          	addi	a0,a0,1032 # 3408 <main+0xc10>
    23ec:	c20fe0ef          	jal	ra,80c <_puts>
    23f0:	00003537          	lui	a0,0x3
    23f4:	43850513          	addi	a0,a0,1080 # 3438 <main+0xc40>
    23f8:	c14fe0ef          	jal	ra,80c <_puts>
    23fc:	00003537          	lui	a0,0x3
    2400:	46850513          	addi	a0,a0,1128 # 3468 <main+0xc70>
    2404:	c08fe0ef          	jal	ra,80c <_puts>
    2408:	00003537          	lui	a0,0x3
    240c:	49c50513          	addi	a0,a0,1180 # 349c <main+0xca4>
    2410:	bfcfe0ef          	jal	ra,80c <_puts>
    2414:	00003537          	lui	a0,0x3
    2418:	4d050513          	addi	a0,a0,1232 # 34d0 <main+0xcd8>
    241c:	bf0fe0ef          	jal	ra,80c <_puts>
    2420:	00003537          	lui	a0,0x3
    2424:	50450513          	addi	a0,a0,1284 # 3504 <main+0xd0c>
    2428:	be4fe0ef          	jal	ra,80c <_puts>
    242c:	00003537          	lui	a0,0x3
    2430:	55850513          	addi	a0,a0,1368 # 3558 <main+0xd60>
    2434:	bd8fe0ef          	jal	ra,80c <_puts>
    2438:	00003537          	lui	a0,0x3
    243c:	58450513          	addi	a0,a0,1412 # 3584 <main+0xd8c>
    2440:	bccfe0ef          	jal	ra,80c <_puts>
    2444:	00003537          	lui	a0,0x3
    2448:	5b850513          	addi	a0,a0,1464 # 35b8 <main+0xdc0>
    244c:	bc0fe0ef          	jal	ra,80c <_puts>
    2450:	00003537          	lui	a0,0x3
    2454:	5e850513          	addi	a0,a0,1512 # 35e8 <main+0xdf0>
    2458:	bb4fe0ef          	jal	ra,80c <_puts>
    245c:	00003537          	lui	a0,0x3
    2460:	60450513          	addi	a0,a0,1540 # 3604 <main+0xe0c>
    2464:	ba8fe0ef          	jal	ra,80c <_puts>
    2468:	00003537          	lui	a0,0x3
    246c:	62050513          	addi	a0,a0,1568 # 3620 <main+0xe28>
    2470:	b9cfe0ef          	jal	ra,80c <_puts>
    2474:	00003537          	lui	a0,0x3
    2478:	65450513          	addi	a0,a0,1620 # 3654 <main+0xe5c>
    247c:	b90fe0ef          	jal	ra,80c <_puts>
    2480:	00003537          	lui	a0,0x3
    2484:	66c50513          	addi	a0,a0,1644 # 366c <main+0xe74>
    2488:	b84fe0ef          	jal	ra,80c <_puts>
    248c:	00003537          	lui	a0,0x3
    2490:	68850513          	addi	a0,a0,1672 # 3688 <main+0xe90>
    2494:	b78fe0ef          	jal	ra,80c <_puts>
    2498:	00003537          	lui	a0,0x3
    249c:	6a850513          	addi	a0,a0,1704 # 36a8 <main+0xeb0>
    24a0:	b6cfe0ef          	jal	ra,80c <_puts>
    24a4:	00003537          	lui	a0,0x3
    24a8:	6cc50513          	addi	a0,a0,1740 # 36cc <main+0xed4>
    24ac:	b60fe0ef          	jal	ra,80c <_puts>
    24b0:	00003537          	lui	a0,0x3
    24b4:	6e450513          	addi	a0,a0,1764 # 36e4 <main+0xeec>
    24b8:	b54fe0ef          	jal	ra,80c <_puts>
    24bc:	c1cfe0ef          	jal	ra,8d8 <_getch>
    24c0:	fdf50713          	addi	a4,a0,-33
    24c4:	0ff77713          	zext.b	a4,a4
    24c8:	05d00613          	li	a2,93
    24cc:	000036b7          	lui	a3,0x3
    24d0:	00e67e63          	bgeu	a2,a4,24ec <test+0x1b4>
    24d4:	1d868513          	addi	a0,a3,472 # 31d8 <main+0x9e0>
    24d8:	b34fe0ef          	jal	ra,80c <_puts>
    24dc:	00004537          	lui	a0,0x4
    24e0:	81c50513          	addi	a0,a0,-2020 # 381c <main+0x1024>
    24e4:	b28fe0ef          	jal	ra,80c <_puts>
    24e8:	ec1ff06f          	j	23a8 <test+0x70>
    24ec:	00a12023          	sw	a0,0(sp)
    24f0:	cd1fd0ef          	jal	ra,1c0 <_putch>
    24f4:	000036b7          	lui	a3,0x3
    24f8:	1d868513          	addi	a0,a3,472 # 31d8 <main+0x9e0>
    24fc:	b10fe0ef          	jal	ra,80c <_puts>
    2500:	00012783          	lw	a5,0(sp)
    2504:	05400713          	li	a4,84
    2508:	02f76a63          	bltu	a4,a5,253c <test+0x204>
    250c:	03000713          	li	a4,48
    2510:	fcf776e3          	bgeu	a4,a5,24dc <test+0x1a4>
    2514:	fcf78793          	addi	a5,a5,-49
    2518:	0ff7f793          	zext.b	a5,a5
    251c:	02300713          	li	a4,35
    2520:	faf76ee3          	bltu	a4,a5,24dc <test+0x1a4>
    2524:	00003737          	lui	a4,0x3
    2528:	00279793          	slli	a5,a5,0x2
    252c:	88070713          	addi	a4,a4,-1920 # 2880 <main+0x88>
    2530:	00e787b3          	add	a5,a5,a4
    2534:	0007a783          	lw	a5,0(a5)
    2538:	00078067          	jr	a5
    253c:	f9978793          	addi	a5,a5,-103
    2540:	0ff7f793          	zext.b	a5,a5
    2544:	01300713          	li	a4,19
    2548:	f8f76ae3          	bltu	a4,a5,24dc <test+0x1a4>
    254c:	00003737          	lui	a4,0x3
    2550:	00279793          	slli	a5,a5,0x2
    2554:	91070713          	addi	a4,a4,-1776 # 2910 <main+0x118>
    2558:	00e787b3          	add	a5,a5,a4
    255c:	0007a783          	lw	a5,0(a5)
    2560:	00078067          	jr	a5
    2564:	9e4ff0ef          	jal	ra,1748 <printLoRaRegs>
    2568:	00004537          	lui	a0,0x4
    256c:	83450513          	addi	a0,a0,-1996 # 3834 <main+0x103c>
    2570:	a9cfe0ef          	jal	ra,80c <_puts>
    2574:	005b9537          	lui	a0,0x5b9
    2578:	d7650513          	addi	a0,a0,-650 # 5b8d76 <_ebss+0x5b5292>
    257c:	ae5fd0ef          	jal	ra,60 <delay_loop>
    2580:	e29ff06f          	j	23a8 <test+0x70>
    2584:	89dfe0ef          	jal	ra,e20 <readAllBMERegs>
    2588:	971fe0ef          	jal	ra,ef8 <printBMERegs>
    258c:	b21fe0ef          	jal	ra,10ac <measureBME680>
    2590:	fd9ff06f          	j	2568 <test+0x230>
    2594:	fe4fe0ef          	jal	ra,d78 <printAdcChannels>
    2598:	fd1ff06f          	j	2568 <test+0x230>
    259c:	e00007b7          	lui	a5,0xe0000
    25a0:	0807c703          	lbu	a4,128(a5) # e0000080 <_ebss+0xdfffc59c>
    25a4:	01074713          	xori	a4,a4,16
    25a8:	00003537          	lui	a0,0x3
    25ac:	08e78023          	sb	a4,128(a5)
    25b0:	70850513          	addi	a0,a0,1800 # 3708 <main+0xf10>
    25b4:	a58fe0ef          	jal	ra,80c <_puts>
    25b8:	e00007b7          	lui	a5,0xe0000
    25bc:	0807c503          	lbu	a0,128(a5) # e0000080 <_ebss+0xdfffc59c>
    25c0:	bf4fe0ef          	jal	ra,9b4 <_printfBin>
    25c4:	00003537          	lui	a0,0x3
    25c8:	71450513          	addi	a0,a0,1812 # 3714 <main+0xf1c>
    25cc:	a40fe0ef          	jal	ra,80c <_puts>
    25d0:	f99ff06f          	j	2568 <test+0x230>
    25d4:	e00007b7          	lui	a5,0xe0000
    25d8:	0807c703          	lbu	a4,128(a5) # e0000080 <_ebss+0xdfffc59c>
    25dc:	08074713          	xori	a4,a4,128
    25e0:	fc9ff06f          	j	25a8 <test+0x270>
    25e4:	e00007b7          	lui	a5,0xe0000
    25e8:	0807c703          	lbu	a4,128(a5) # e0000080 <_ebss+0xdfffc59c>
    25ec:	04074713          	xori	a4,a4,64
    25f0:	fb9ff06f          	j	25a8 <test+0x270>
    25f4:	e00007b7          	lui	a5,0xe0000
    25f8:	0807c703          	lbu	a4,128(a5) # e0000080 <_ebss+0xdfffc59c>
    25fc:	02074713          	xori	a4,a4,32
    2600:	fa9ff06f          	j	25a8 <test+0x270>
    2604:	00000067          	jr	zero # 0 <reset_vec>
    2608:	f61ff06f          	j	2568 <test+0x230>
    260c:	00003537          	lui	a0,0x3
    2610:	7fc50513          	addi	a0,a0,2044 # 37fc <main+0x1004>
    2614:	9f8fe0ef          	jal	ra,80c <_puts>
    2618:	000047b7          	lui	a5,0x4
    261c:	ac078e23          	sb	zero,-1316(a5) # 3adc <clkMode>
    2620:	e00007b7          	lui	a5,0xe0000
    2624:	0c07a703          	lw	a4,192(a5) # e00000c0 <_ebss+0xdfffc5dc>
    2628:	00876713          	ori	a4,a4,8
    262c:	0ce7a023          	sw	a4,192(a5)
    2630:	00895737          	lui	a4,0x895
    2634:	44070713          	addi	a4,a4,1088 # 895440 <_ebss+0x89195c>
    2638:	06e7a023          	sw	a4,96(a5)
    263c:	f2dff06f          	j	2568 <test+0x230>
    2640:	000047b7          	lui	a5,0x4
    2644:	ac078d23          	sb	zero,-1318(a5) # 3ada <volcarOutputGPS>
    2648:	01000713          	li	a4,16
    264c:	e00007b7          	lui	a5,0xe0000
    2650:	0ce7a023          	sw	a4,192(a5) # e00000c0 <_ebss+0xdfffc5dc>
    2654:	981ff0ef          	jal	ra,1fd4 <getGPSFrame>
    2658:	f11ff06f          	j	2568 <test+0x230>
    265c:	000047b7          	lui	a5,0x4
    2660:	00100713          	li	a4,1
    2664:	ace78d23          	sb	a4,-1318(a5) # 3ada <volcarOutputGPS>
    2668:	00001437          	lui	s0,0x1
    266c:	e00007b7          	lui	a5,0xe0000
    2670:	01000713          	li	a4,16
    2674:	0ce7a023          	sw	a4,192(a5) # e00000c0 <_ebss+0xdfffc5dc>
    2678:	76640413          	addi	s0,s0,1894 # 1766 <printLoRaRegs+0x1e>
    267c:	00040513          	mv	a0,s0
    2680:	9e1fd0ef          	jal	ra,60 <delay_loop>
    2684:	ff9ff06f          	j	267c <test+0x344>
    2688:	e00007b7          	lui	a5,0xe0000
    268c:	0107c503          	lbu	a0,16(a5) # e0000010 <_ebss+0xdfffc52c>
    2690:	b31fd0ef          	jal	ra,1c0 <_putch>
    2694:	ff5ff06f          	j	2688 <test+0x350>
    2698:	e00007b7          	lui	a5,0xe0000
    269c:	0607a583          	lw	a1,96(a5) # e0000060 <_ebss+0xdfffc57c>
    26a0:	00004537          	lui	a0,0x4
    26a4:	81050513          	addi	a0,a0,-2032 # 3810 <main+0x1018>
    26a8:	9bcfe0ef          	jal	ra,864 <_printf>
    26ac:	ebdff06f          	j	2568 <test+0x230>
    26b0:	1e440513          	addi	a0,s0,484
    26b4:	f19ff06f          	j	25cc <test+0x294>
    26b8:	00400713          	li	a4,4
    26bc:	e00007b7          	lui	a5,0xe0000
    26c0:	0ce7a023          	sw	a4,192(a5) # e00000c0 <_ebss+0xdfffc5dc>
    26c4:	04100713          	li	a4,65
    26c8:	00e78023          	sb	a4,0(a5)
    26cc:	ffdff06f          	j	26c8 <test+0x390>
    26d0:	c29ff0ef          	jal	ra,22f8 <GpinRead>
    26d4:	e95ff06f          	j	2568 <test+0x230>
    26d8:	e0000737          	lui	a4,0xe0000
    26dc:	0c072783          	lw	a5,192(a4) # e00000c0 <_ebss+0xdfffc5dc>
    26e0:	0087e793          	ori	a5,a5,8
    26e4:	0cf72023          	sw	a5,192(a4)
    26e8:	e19fe0ef          	jal	ra,1500 <ReadGAS>
    26ec:	e7dff06f          	j	2568 <test+0x230>
    26f0:	e0000737          	lui	a4,0xe0000
    26f4:	0c072783          	lw	a5,192(a4) # e00000c0 <_ebss+0xdfffc5dc>
    26f8:	0087e793          	ori	a5,a5,8
    26fc:	0cf72023          	sw	a5,192(a4)
    2700:	dd9fe0ef          	jal	ra,14d8 <ReadDust>
    2704:	e65ff06f          	j	2568 <test+0x230>
    2708:	b04ff0ef          	jal	ra,1a0c <transmitPRAOFrame>
    270c:	e5dff06f          	j	2568 <test+0x230>
    2710:	e1dfe0ef          	jal	ra,152c <printCO>
    2714:	e2dfe0ef          	jal	ra,1540 <printDust>
    2718:	e3dfe0ef          	jal	ra,1554 <printCh4LPG>
    271c:	e4dff06f          	j	2568 <test+0x230>

00002720 <__mulsi3>:
    2720:	00050613          	mv	a2,a0
    2724:	00000513          	li	a0,0
    2728:	0015f693          	andi	a3,a1,1
    272c:	00068463          	beqz	a3,2734 <__mulsi3+0x14>
    2730:	00c50533          	add	a0,a0,a2
    2734:	0015d593          	srli	a1,a1,0x1
    2738:	00161613          	slli	a2,a2,0x1
    273c:	fe0596e3          	bnez	a1,2728 <__mulsi3+0x8>
    2740:	00008067          	ret

00002744 <__divsi3>:
    2744:	06054063          	bltz	a0,27a4 <__umodsi3+0x10>
    2748:	0605c663          	bltz	a1,27b4 <__umodsi3+0x20>

0000274c <__hidden___udivsi3>:
    274c:	00058613          	mv	a2,a1
    2750:	00050593          	mv	a1,a0
    2754:	fff00513          	li	a0,-1
    2758:	02060c63          	beqz	a2,2790 <__hidden___udivsi3+0x44>
    275c:	00100693          	li	a3,1
    2760:	00b67a63          	bgeu	a2,a1,2774 <__hidden___udivsi3+0x28>
    2764:	00c05863          	blez	a2,2774 <__hidden___udivsi3+0x28>
    2768:	00161613          	slli	a2,a2,0x1
    276c:	00169693          	slli	a3,a3,0x1
    2770:	feb66ae3          	bltu	a2,a1,2764 <__hidden___udivsi3+0x18>
    2774:	00000513          	li	a0,0
    2778:	00c5e663          	bltu	a1,a2,2784 <__hidden___udivsi3+0x38>
    277c:	40c585b3          	sub	a1,a1,a2
    2780:	00d56533          	or	a0,a0,a3
    2784:	0016d693          	srli	a3,a3,0x1
    2788:	00165613          	srli	a2,a2,0x1
    278c:	fe0696e3          	bnez	a3,2778 <__hidden___udivsi3+0x2c>
    2790:	00008067          	ret

00002794 <__umodsi3>:
    2794:	00008293          	mv	t0,ra
    2798:	fb5ff0ef          	jal	ra,274c <__hidden___udivsi3>
    279c:	00058513          	mv	a0,a1
    27a0:	00028067          	jr	t0
    27a4:	40a00533          	neg	a0,a0
    27a8:	00b04863          	bgtz	a1,27b8 <__umodsi3+0x24>
    27ac:	40b005b3          	neg	a1,a1
    27b0:	f9dff06f          	j	274c <__hidden___udivsi3>
    27b4:	40b005b3          	neg	a1,a1
    27b8:	00008293          	mv	t0,ra
    27bc:	f91ff0ef          	jal	ra,274c <__hidden___udivsi3>
    27c0:	40a00533          	neg	a0,a0
    27c4:	00028067          	jr	t0

000027c8 <__modsi3>:
    27c8:	00008293          	mv	t0,ra
    27cc:	0005ca63          	bltz	a1,27e0 <__modsi3+0x18>
    27d0:	00054c63          	bltz	a0,27e8 <__modsi3+0x20>
    27d4:	f79ff0ef          	jal	ra,274c <__hidden___udivsi3>
    27d8:	00058513          	mv	a0,a1
    27dc:	00028067          	jr	t0
    27e0:	40b005b3          	neg	a1,a1
    27e4:	fe0558e3          	bgez	a0,27d4 <__modsi3+0xc>
    27e8:	40a00533          	neg	a0,a0
    27ec:	f61ff0ef          	jal	ra,274c <__hidden___udivsi3>
    27f0:	40b00533          	neg	a0,a1
    27f4:	00028067          	jr	t0

000027f8 <main>:
    27f8:	ff410113          	addi	sp,sp,-12
    27fc:	00812223          	sw	s0,4(sp)
    2800:	00112423          	sw	ra,8(sp)
    2804:	e0000437          	lui	s0,0xe0000
    2808:	09b00793          	li	a5,155
    280c:	00f42223          	sw	a5,4(s0) # e0000004 <_ebss+0xdfffc520>
    2810:	75200793          	li	a5,1874
    2814:	00f42623          	sw	a5,12(s0)
    2818:	00092537          	lui	a0,0x92
    281c:	00f42a23          	sw	a5,20(s0)
    2820:	7b650513          	addi	a0,a0,1974 # 927b6 <_ebss+0x8ecd2>
    2824:	83dfd0ef          	jal	ra,60 <delay_loop>
    2828:	00044783          	lbu	a5,0(s0)
    282c:	00844783          	lbu	a5,8(s0)
    2830:	01044783          	lbu	a5,16(s0)
    2834:	000017b7          	lui	a5,0x1
    2838:	94478793          	addi	a5,a5,-1724 # 944 <irq0_handler>
    283c:	0ef42023          	sw	a5,224(s0)
    2840:	06c00793          	li	a5,108
    2844:	0ef42223          	sw	a5,228(s0)
    2848:	0d000793          	li	a5,208
    284c:	0ef42423          	sw	a5,232(s0)
    2850:	000017b7          	lui	a5,0x1
    2854:	bc078793          	addi	a5,a5,-1088 # bc0 <irq3_handler>
    2858:	0ef42623          	sw	a5,236(s0)
    285c:	69800793          	li	a5,1688
    2860:	0ef42823          	sw	a5,240(s0)
    2864:	12000793          	li	a5,288
    2868:	0ef42a23          	sw	a5,244(s0)
    286c:	76800793          	li	a5,1896
    2870:	0ef42c23          	sw	a5,248(s0)
    2874:	17000793          	li	a5,368
    2878:	0ef42e23          	sw	a5,252(s0)
    287c:	abdff0ef          	jal	ra,2338 <test>
    2880:	26b0                	.2byte	0x26b0
    2882:	0000                	.2byte	0x0
    2884:	26b8                	.2byte	0x26b8
    2886:	0000                	.2byte	0x0
    2888:	26d0                	.2byte	0x26d0
    288a:	0000                	.2byte	0x0
    288c:	2594                	.2byte	0x2594
    288e:	0000                	.2byte	0x0
    2890:	2584                	.2byte	0x2584
    2892:	0000                	.2byte	0x0
    2894:	259c                	.2byte	0x259c
    2896:	0000                	.2byte	0x0
    2898:	25d4                	.2byte	0x25d4
    289a:	0000                	.2byte	0x0
    289c:	25e4                	.2byte	0x25e4
    289e:	0000                	.2byte	0x0
    28a0:	25f4                	.2byte	0x25f4
    28a2:	0000                	.2byte	0x0
    28a4:	24dc                	.2byte	0x24dc
    28a6:	0000                	.2byte	0x0
    28a8:	24dc                	.2byte	0x24dc
    28aa:	0000                	.2byte	0x0
    28ac:	24dc                	.2byte	0x24dc
    28ae:	0000                	.2byte	0x0
    28b0:	24dc                	.2byte	0x24dc
    28b2:	0000                	.2byte	0x0
    28b4:	24dc                	.2byte	0x24dc
    28b6:	0000                	.2byte	0x0
    28b8:	24dc                	.2byte	0x24dc
    28ba:	0000                	.2byte	0x0
    28bc:	24dc                	.2byte	0x24dc
    28be:	0000                	.2byte	0x0
    28c0:	24dc                	.2byte	0x24dc
    28c2:	0000                	.2byte	0x0
    28c4:	24dc                	.2byte	0x24dc
    28c6:	0000                	.2byte	0x0
    28c8:	24dc                	.2byte	0x24dc
    28ca:	0000                	.2byte	0x0
    28cc:	24dc                	.2byte	0x24dc
    28ce:	0000                	.2byte	0x0
    28d0:	24dc                	.2byte	0x24dc
    28d2:	0000                	.2byte	0x0
    28d4:	24dc                	.2byte	0x24dc
    28d6:	0000                	.2byte	0x0
    28d8:	26d8                	.2byte	0x26d8
    28da:	0000                	.2byte	0x0
    28dc:	24dc                	.2byte	0x24dc
    28de:	0000                	.2byte	0x0
    28e0:	24dc                	.2byte	0x24dc
    28e2:	0000                	.2byte	0x0
    28e4:	24dc                	.2byte	0x24dc
    28e6:	0000                	.2byte	0x0
    28e8:	24dc                	.2byte	0x24dc
    28ea:	0000                	.2byte	0x0
    28ec:	2708                	.2byte	0x2708
    28ee:	0000                	.2byte	0x0
    28f0:	24dc                	.2byte	0x24dc
    28f2:	0000                	.2byte	0x0
    28f4:	24dc                	.2byte	0x24dc
    28f6:	0000                	.2byte	0x0
    28f8:	24dc                	.2byte	0x24dc
    28fa:	0000                	.2byte	0x0
    28fc:	26f0                	.2byte	0x26f0
    28fe:	0000                	.2byte	0x0
    2900:	24dc                	.2byte	0x24dc
    2902:	0000                	.2byte	0x0
    2904:	24dc                	.2byte	0x24dc
    2906:	0000                	.2byte	0x0
    2908:	24dc                	.2byte	0x24dc
    290a:	0000                	.2byte	0x0
    290c:	2710                	.2byte	0x2710
    290e:	0000                	.2byte	0x0
    2910:	2640                	.2byte	0x2640
    2912:	0000                	.2byte	0x0
    2914:	265c                	.2byte	0x265c
    2916:	0000                	.2byte	0x0
    2918:	24dc                	.2byte	0x24dc
    291a:	0000                	.2byte	0x0
    291c:	24dc                	.2byte	0x24dc
    291e:	0000                	.2byte	0x0
    2920:	2688                	.2byte	0x2688
    2922:	0000                	.2byte	0x0
    2924:	2698                	.2byte	0x2698
    2926:	0000                	.2byte	0x0
    2928:	24dc                	.2byte	0x24dc
    292a:	0000                	.2byte	0x0
    292c:	24dc                	.2byte	0x24dc
    292e:	0000                	.2byte	0x0
    2930:	24dc                	.2byte	0x24dc
    2932:	0000                	.2byte	0x0
    2934:	24dc                	.2byte	0x24dc
    2936:	0000                	.2byte	0x0
    2938:	2604                	.2byte	0x2604
    293a:	0000                	.2byte	0x0
    293c:	24dc                	.2byte	0x24dc
    293e:	0000                	.2byte	0x0
    2940:	24dc                	.2byte	0x24dc
    2942:	0000                	.2byte	0x0
    2944:	260c                	.2byte	0x260c
    2946:	0000                	.2byte	0x0
    2948:	24dc                	.2byte	0x24dc
    294a:	0000                	.2byte	0x0
    294c:	24dc                	.2byte	0x24dc
    294e:	0000                	.2byte	0x0
    2950:	24dc                	.2byte	0x24dc
    2952:	0000                	.2byte	0x0
    2954:	2568                	.2byte	0x2568
    2956:	0000                	.2byte	0x0
    2958:	24dc                	.2byte	0x24dc
    295a:	0000                	.2byte	0x0
    295c:	2564                	.2byte	0x2564
    295e:	0000                	.2byte	0x0
    2960:	0000                	.2byte	0x0
    2962:	0000                	.2byte	0x0
    2964:	6e28                	.2byte	0x6e28
    2966:	6c75                	.2byte	0x6c75
    2968:	296c                	.2byte	0x296c
    296a:	0000                	.2byte	0x0
    296c:	540a                	.2byte	0x540a
    296e:	4152                	.2byte	0x4152
    2970:	2050                	.2byte	0x2050
    2972:	7461                	.2byte	0x7461
    2974:	3020                	.2byte	0x3020
    2976:	2578                	.2byte	0x2578
    2978:	0a78                	.2byte	0xa78
    297a:	0000                	.2byte	0x0
    297c:	6425                	.2byte	0x6425
    297e:	6425                	.2byte	0x6425
    2980:	6425                	.2byte	0x6425
    2982:	6425                	.2byte	0x6425
    2984:	2520                	.2byte	0x2520
    2986:	2564                	.2byte	0x2564
    2988:	2564                	.2byte	0x2564
    298a:	2564                	.2byte	0x2564
    298c:	2064                	.2byte	0x2064
    298e:	7c7c                	.2byte	0x7c7c
    2990:	2520                	.2byte	0x2520
    2992:	0a78                	.2byte	0xa78
    2994:	0000                	.2byte	0x0
    2996:	0000                	.2byte	0x0
    2998:	206b6c43          	.4byte	0x206b6c43
    299c:	6f4d                	.2byte	0x6f4d
    299e:	6564                	.2byte	0x6564
    29a0:	4520                	.2byte	0x4520
    29a2:	7272                	.2byte	0x7272
    29a4:	0000726f          	jal	tp,99a4 <_ebss+0x5ec0>
    29a8:	2d2d                	.2byte	0x2d2d
    29aa:	4120                	.2byte	0x4120
    29ac:	4344                	.2byte	0x4344
    29ae:	4320                	.2byte	0x4320
    29b0:	4148                	.2byte	0x4148
    29b2:	4e4e                	.2byte	0x4e4e
    29b4:	4c45                	.2byte	0x4c45
    29b6:	2d203a53          	.4byte	0x2d203a53
    29ba:	0a2d                	.2byte	0xa2d
    29bc:	0000                	.2byte	0x0
    29be:	0000                	.2byte	0x0
    29c0:	6e616843          	.4byte	0x6e616843
    29c4:	656e                	.2byte	0x656e
    29c6:	206c                	.2byte	0x206c
    29c8:	3a30                	.2byte	0x3a30
    29ca:	2520                	.2byte	0x2520
    29cc:	2064                	.2byte	0x2064
    29ce:	566d                	.2byte	0x566d
    29d0:	000a                	.2byte	0xa
    29d2:	0000                	.2byte	0x0
    29d4:	6e616843          	.4byte	0x6e616843
    29d8:	656e                	.2byte	0x656e
    29da:	206c                	.2byte	0x206c
    29dc:	3a31                	.2byte	0x3a31
    29de:	2520                	.2byte	0x2520
    29e0:	2064                	.2byte	0x2064
    29e2:	566d                	.2byte	0x566d
    29e4:	000a                	.2byte	0xa
    29e6:	0000                	.2byte	0x0
    29e8:	6e616843          	.4byte	0x6e616843
    29ec:	656e                	.2byte	0x656e
    29ee:	206c                	.2byte	0x206c
    29f0:	3a32                	.2byte	0x3a32
    29f2:	2520                	.2byte	0x2520
    29f4:	2064                	.2byte	0x2064
    29f6:	566d                	.2byte	0x566d
    29f8:	000a                	.2byte	0xa
    29fa:	0000                	.2byte	0x0
    29fc:	6e616843          	.4byte	0x6e616843
    2a00:	656e                	.2byte	0x656e
    2a02:	206c                	.2byte	0x206c
    2a04:	25203a33          	.4byte	0x25203a33
    2a08:	2064                	.2byte	0x2064
    2a0a:	566d                	.2byte	0x566d
    2a0c:	000a                	.2byte	0xa
    2a0e:	0000                	.2byte	0x0
    2a10:	6552                	.2byte	0x6552
    2a12:	74736967          	.4byte	0x74736967
    2a16:	6f72                	.2byte	0x6f72
    2a18:	65642073          	.4byte	0x65642073
    2a1c:	206c                	.2byte	0x206c
    2a1e:	736e6573          	.4byte	0x736e6573
    2a22:	4220726f          	jal	tp,9e44 <_ebss+0x6360>
    2a26:	454d                	.2byte	0x454d
    2a28:	0a3a                	.2byte	0xa3a
    2a2a:	0000                	.2byte	0x0
    2a2c:	3025                	.2byte	0x3025
    2a2e:	7832                	.2byte	0x7832
    2a30:	0020                	.2byte	0x20
    2a32:	0000                	.2byte	0x0
    2a34:	6554                	.2byte	0x6554
    2a36:	706d                	.2byte	0x706d
    2a38:	7265                	.2byte	0x7265
    2a3a:	7461                	.2byte	0x7461
    2a3c:	7275                	.2byte	0x7275
    2a3e:	3a61                	.2byte	0x3a61
    2a40:	2520                	.2byte	0x2520
    2a42:	2564                	.2byte	0x2564
    2a44:	000a4363          	bltz	s4,2a4a <main+0x252>
    2a48:	6574                	.2byte	0x6574
    2a4a:	706d                	.2byte	0x706d
    2a4c:	615f 6364 203a      	.byte	0x5f, 0x61, 0x64, 0x63, 0x3a, 0x20
    2a52:	6425                	.2byte	0x6425
    2a54:	000a                	.2byte	0xa
    2a56:	0000                	.2byte	0x0
    2a58:	7250                	.2byte	0x7250
    2a5a:	7365                	.2byte	0x7365
    2a5c:	6f69                	.2byte	0x6f69
    2a5e:	3a6e                	.2byte	0x3a6e
    2a60:	2520                	.2byte	0x2520
    2a62:	2064                	.2byte	0x2064
    2a64:	5068                	.2byte	0x5068
    2a66:	7361                	.2byte	0x7361
    2a68:	0a6c6163          	bltu	s8,t1,2b0a <main+0x312>
    2a6c:	0000                	.2byte	0x0
    2a6e:	0000                	.2byte	0x0
    2a70:	7548                	.2byte	0x7548
    2a72:	656d                	.2byte	0x656d
    2a74:	6164                	.2byte	0x6164
    2a76:	3a64                	.2byte	0x3a64
    2a78:	2520                	.2byte	0x2520
    2a7a:	2564                	.2byte	0x2564
    2a7c:	00000a63          	beqz	zero,2a90 <main+0x298>
    2a80:	2d2d                	.2byte	0x2d2d
    2a82:	4520                	.2byte	0x4520
    2a84:	414e                	.2byte	0x414e
    2a86:	4c42                	.2byte	0x4c42
    2a88:	2045                	.2byte	0x2045
    2a8a:	20534147          	.4byte	0x20534147
    2a8e:	534e4553          	.4byte	0x534e4553
    2a92:	2d20524f          	.4byte	0x2d20524f
    2a96:	0a2d                	.2byte	0xa2d
    2a98:	666e6f43          	.4byte	0x666e6f43
    2a9c:	6769                	.2byte	0x6769
    2a9e:	203a                	.2byte	0x203a
    2aa0:	70657453          	.4byte	0x70657453
    2aa4:	5520                	.2byte	0x5520
    2aa6:	2070                	.2byte	0x2070
    2aa8:	6e45                	.2byte	0x6e45
    2aaa:	6261                	.2byte	0x6261
    2aac:	656c                	.2byte	0x656c
    2aae:	0a64                	.2byte	0xa64
    2ab0:	3036                	.2byte	0x3036
    2ab2:	7320                	.2byte	0x7320
    2ab4:	6765                	.2byte	0x6765
    2ab6:	2d20                	.2byte	0x2d20
    2ab8:	203e                	.2byte	0x203e
    2aba:	5635                	.2byte	0x5635
    2abc:	2820                	.2byte	0x2820
    2abe:	6c696877          	.4byte	0x6c696877
    2ac2:	2065                	.2byte	0x2065
    2ac4:	454c                	.2byte	0x454c
    2ac6:	5446                	.2byte	0x5446
    2ac8:	4c20                	.2byte	0x4c20
    2aca:	4445                	.2byte	0x4445
    2acc:	0a29                	.2byte	0xa29
    2ace:	3039                	.2byte	0x3039
    2ad0:	7320                	.2byte	0x7320
    2ad2:	6765                	.2byte	0x6765
    2ad4:	2d20                	.2byte	0x2d20
    2ad6:	203e                	.2byte	0x203e
    2ad8:	5631                	.2byte	0x5631
    2ada:	2034                	.2byte	0x2034
    2adc:	7728                	.2byte	0x7728
    2ade:	6968                	.2byte	0x6968
    2ae0:	656c                	.2byte	0x656c
    2ae2:	5220                	.2byte	0x5220
    2ae4:	4749                	.2byte	0x4749
    2ae6:	5448                	.2byte	0x5448
    2ae8:	4c20                	.2byte	0x4c20
    2aea:	4445                	.2byte	0x4445
    2aec:	0a29                	.2byte	0xa29
    2aee:	0000                	.2byte	0x0
    2af0:	200a                	.2byte	0x200a
    2af2:	61564f43          	.4byte	0x61564f43
    2af6:	756c                	.2byte	0x756c
    2af8:	2065                	.2byte	0x2065
    2afa:	6d28                	.2byte	0x6d28
    2afc:	2956                	.2byte	0x2956
    2afe:	203a                	.2byte	0x203a
    2b00:	6425                	.2byte	0x6425
    2b02:	000a                	.2byte	0xa
    2b04:	200a                	.2byte	0x200a
    2b06:	6f70                	.2byte	0x6f70
    2b08:	766c                	.2byte	0x766c
    2b0a:	6c61566f          	jal	a2,181d0 <_ebss+0x146ec>
    2b0e:	6575                	.2byte	0x6575
    2b10:	2820                	.2byte	0x2820
    2b12:	566d                	.2byte	0x566d
    2b14:	3a29                	.2byte	0x3a29
    2b16:	2520                	.2byte	0x2520
    2b18:	0a64                	.2byte	0xa64
    2b1a:	0000                	.2byte	0x0
    2b1c:	200a                	.2byte	0x200a
    2b1e:	4c346843          	.4byte	0x4c346843
    2b22:	4750                	.2byte	0x4750
    2b24:	6156                	.2byte	0x6156
    2b26:	756c                	.2byte	0x756c
    2b28:	2065                	.2byte	0x2065
    2b2a:	6d28                	.2byte	0x6d28
    2b2c:	2956                	.2byte	0x2956
    2b2e:	203a                	.2byte	0x203a
    2b30:	6425                	.2byte	0x6425
    2b32:	000a                	.2byte	0xa
    2b34:	6552                	.2byte	0x6552
    2b36:	74736967          	.4byte	0x74736967
    2b3a:	6f72                	.2byte	0x6f72
    2b3c:	65642073          	.4byte	0x65642073
    2b40:	206c                	.2byte	0x206c
    2b42:	6f6d                	.2byte	0x6f6d
    2b44:	7564                	.2byte	0x7564
    2b46:	6f6c                	.2byte	0x6f6c
    2b48:	4c20                	.2byte	0x4c20
    2b4a:	3a61526f          	jal	tp,17ef0 <_ebss+0x1440c>
    2b4e:	000a                	.2byte	0xa
    2b50:	7254                	.2byte	0x7254
    2b52:	6e61                	.2byte	0x6e61
    2b54:	74696d73          	.4byte	0x74696d73
    2b58:	6569                	.2byte	0x6569
    2b5a:	646e                	.2byte	0x646e
    2b5c:	0000006f          	j	2b5c <main+0x364>
    2b60:	002e                	.2byte	0x2e
    2b62:	0000                	.2byte	0x0
    2b64:	540a                	.2byte	0x540a
    2b66:	6172                	.2byte	0x6172
    2b68:	736e                	.2byte	0x736e
    2b6a:	696d                	.2byte	0x696d
    2b6c:	6e6f6973          	.4byte	0x6e6f6973
    2b70:	6320                	.2byte	0x6320
    2b72:	6c706d6f          	jal	s10,9a38 <_ebss+0x5f54>
    2b76:	7465                	.2byte	0x7465
    2b78:	6461                	.2byte	0x6461
    2b7a:	0a61                	.2byte	0xa61
    2b7c:	0000                	.2byte	0x0
    2b7e:	0000                	.2byte	0x0
    2b80:	6f4e                	.2byte	0x6f4e
    2b82:	7320                	.2byte	0x7320
    2b84:	2065                	.2byte	0x2065
    2b86:	6564                	.2byte	0x6564
    2b88:	6574                	.2byte	0x6574
    2b8a:	20617463          	bgeu	sp,t1,2d92 <main+0x59a>
    2b8e:	6f4c                	.2byte	0x6f4c
    2b90:	6152                	.2byte	0x6152
    2b92:	000a                	.2byte	0xa
    2b94:	240a                	.2byte	0x240a
    2b96:	2024                	.2byte	0x2024
    2b98:	4e49                	.2byte	0x4e49
    2b9a:	5449                	.2byte	0x5449
    2b9c:	5020                	.2byte	0x5020
    2b9e:	4152                	.2byte	0x4152
    2ba0:	5854204f          	.4byte	0x5854204f
    2ba4:	2420                	.2byte	0x2420
    2ba6:	0024                	.2byte	0x24
    2ba8:	240a                	.2byte	0x240a
    2baa:	5520                	.2byte	0x5520
    2bac:	4354                	.2byte	0x4354
    2bae:	5420                	.2byte	0x5420
    2bb0:	6d69                	.2byte	0x6d69
    2bb2:	3a65                	.2byte	0x3a65
    2bb4:	0020                	.2byte	0x20
    2bb6:	0000                	.2byte	0x0
    2bb8:	240a                	.2byte	0x240a
    2bba:	4420                	.2byte	0x4420
    2bbc:	7461                	.2byte	0x7461
    2bbe:	3a65                	.2byte	0x3a65
    2bc0:	0020                	.2byte	0x20
    2bc2:	0000                	.2byte	0x0
    2bc4:	240a                	.2byte	0x240a
    2bc6:	5420                	.2byte	0x5420
    2bc8:	6d65                	.2byte	0x6d65
    2bca:	3a70                	.2byte	0x3a70
    2bcc:	0020                	.2byte	0x20
    2bce:	0000                	.2byte	0x0
    2bd0:	6564                	.2byte	0x6564
    2bd2:	240a0067          	jr	576(s4)
    2bd6:	4820                	.2byte	0x4820
    2bd8:	6d75                	.2byte	0x6d75
    2bda:	6465                	.2byte	0x6465
    2bdc:	6461                	.2byte	0x6461
    2bde:	203a                	.2byte	0x203a
    2be0:	0000                	.2byte	0x0
    2be2:	0000                	.2byte	0x0
    2be4:	0025                	.2byte	0x25
    2be6:	0000                	.2byte	0x0
    2be8:	240a                	.2byte	0x240a
    2bea:	5020                	.2byte	0x5020
    2bec:	6572                	.2byte	0x6572
    2bee:	6e6f6973          	.4byte	0x6e6f6973
    2bf2:	203a                	.2byte	0x203a
    2bf4:	0000                	.2byte	0x0
    2bf6:	0000                	.2byte	0x0
    2bf8:	5068                	.2byte	0x5068
    2bfa:	7361                	.2byte	0x7361
    2bfc:	0000                	.2byte	0x0
    2bfe:	0000                	.2byte	0x0
    2c00:	240a                	.2byte	0x240a
    2c02:	5020                	.2byte	0x5020
    2c04:	6f766c6f          	jal	s8,69afa <_ebss+0x66016>
    2c08:	203a                	.2byte	0x203a
    2c0a:	0000                	.2byte	0x0
    2c0c:	566d                	.2byte	0x566d
    2c0e:	4120                	.2byte	0x4120
    2c10:	4344                	.2byte	0x4344
    2c12:	0000                	.2byte	0x0
    2c14:	240a                	.2byte	0x240a
    2c16:	4320                	.2byte	0x4320
    2c18:	00203a4f          	.4byte	0x203a4f
    2c1c:	240a                	.2byte	0x240a
    2c1e:	4320                	.2byte	0x4320
    2c20:	3468                	.2byte	0x3468
    2c22:	504c                	.2byte	0x504c
    2c24:	00203a47          	.4byte	0x203a47
    2c28:	240a                	.2byte	0x240a
    2c2a:	2024                	.2byte	0x2024
    2c2c:	4e45                	.2byte	0x4e45
    2c2e:	2044                	.2byte	0x2044
    2c30:	5250                	.2byte	0x5250
    2c32:	4f41                	.2byte	0x4f41
    2c34:	5420                	.2byte	0x5420
    2c36:	2058                	.2byte	0x2058
    2c38:	2424                	.2byte	0x2424
    2c3a:	0000                	.2byte	0x0
    2c3c:	570a                	.2byte	0x570a
    2c3e:	6961                	.2byte	0x6961
    2c40:	6974                	.2byte	0x6974
    2c42:	676e                	.2byte	0x676e
    2c44:	6620                	.2byte	0x6620
    2c46:	6320726f          	jal	tp,a278 <_ebss+0x6794>
    2c4a:	78656e6f          	jal	t3,593d0 <_ebss+0x558ec>
    2c4e:	6f69                	.2byte	0x6f69
    2c50:	206e                	.2byte	0x206e
    2c52:	2428                	.2byte	0x2428
    2c54:	47474e47          	.4byte	0x47474e47
    2c58:	2c41                	.2byte	0x2c41
    2c5a:	4724                	.2byte	0x4724
    2c5c:	4750                	.2byte	0x4750
    2c5e:	242c4147          	.4byte	0x242c4147
    2c62:	4d524e47          	.4byte	0x4d524e47
    2c66:	20262043          	.4byte	0x20262043
    2c6a:	4724                	.2byte	0x4724
    2c6c:	5250                	.2byte	0x5250
    2c6e:	434d                	.2byte	0x434d
    2c70:	2029                	.2byte	0x2029
    2c72:	000a                	.2byte	0xa
    2c74:	4724                	.2byte	0x4724
    2c76:	474e                	.2byte	0x474e
    2c78:	00004147          	.4byte	0x4147
    2c7c:	4724                	.2byte	0x4724
    2c7e:	4750                	.2byte	0x4750
    2c80:	00004147          	.4byte	0x4147
    2c84:	2d2d                	.2byte	0x2d2d
    2c86:	2d2d                	.2byte	0x2d2d
    2c88:	2d2d                	.2byte	0x2d2d
    2c8a:	2d2d                	.2byte	0x2d2d
    2c8c:	2d2d                	.2byte	0x2d2d
    2c8e:	2d2d                	.2byte	0x2d2d
    2c90:	2d2d                	.2byte	0x2d2d
    2c92:	492d                	.2byte	0x492d
    2c94:	464e                	.2byte	0x464e
    2c96:	414d524f          	.4byte	0x414d524f
    2c9a:	4e4f4943          	.4byte	0x4e4f4943
    2c9e:	4720                	.2byte	0x4720
    2ca0:	5350                	.2byte	0x5350
    2ca2:	2d2d                	.2byte	0x2d2d
    2ca4:	2d2d                	.2byte	0x2d2d
    2ca6:	2d2d                	.2byte	0x2d2d
    2ca8:	2d2d                	.2byte	0x2d2d
    2caa:	2d2d                	.2byte	0x2d2d
    2cac:	2d2d                	.2byte	0x2d2d
    2cae:	2d2d                	.2byte	0x2d2d
    2cb0:	0a2d                	.2byte	0xa2d
    2cb2:	0000                	.2byte	0x0
    2cb4:	5455                	.2byte	0x5455
    2cb6:	69542043          	.4byte	0x69542043
    2cba:	656d                	.2byte	0x656d
    2cbc:	2020                	.2byte	0x2020
    2cbe:	093a                	.2byte	0x93a
    2cc0:	0000                	.2byte	0x0
    2cc2:	0000                	.2byte	0x0
    2cc4:	6f68                	.2byte	0x6f68
    2cc6:	6172                	.2byte	0x6172
    2cc8:	203a                	.2byte	0x203a
    2cca:	0000                	.2byte	0x0
    2ccc:	2020                	.2byte	0x2020
    2cce:	696d                	.2byte	0x696d
    2cd0:	756e                	.2byte	0x756e
    2cd2:	6f74                	.2byte	0x6f74
    2cd4:	00203a73          	.4byte	0x203a73
    2cd8:	2020                	.2byte	0x2020
    2cda:	75676573          	.4byte	0x75676573
    2cde:	646e                	.2byte	0x646e
    2ce0:	203a736f          	jal	t1,aa6e2 <_ebss+0xa6bfe>
    2ce4:	0000                	.2byte	0x0
    2ce6:	0000                	.2byte	0x0
    2ce8:	614c                	.2byte	0x614c
    2cea:	6974                	.2byte	0x6974
    2cec:	7574                	.2byte	0x7574
    2cee:	6564                	.2byte	0x6564
    2cf0:	2020                	.2byte	0x2020
    2cf2:	093a                	.2byte	0x93a
    2cf4:	0000                	.2byte	0x0
    2cf6:	0000                	.2byte	0x0
    2cf8:	6f4c                	.2byte	0x6f4c
    2cfa:	676e                	.2byte	0x676e
    2cfc:	7469                	.2byte	0x7469
    2cfe:	6475                	.2byte	0x6475
    2d00:	2065                	.2byte	0x2065
    2d02:	093a                	.2byte	0x93a
    2d04:	0000                	.2byte	0x0
    2d06:	0000                	.2byte	0x0
    2d08:	6c41                	.2byte	0x6c41
    2d0a:	6974                	.2byte	0x6974
    2d0c:	7574                	.2byte	0x7574
    2d0e:	6564                	.2byte	0x6564
    2d10:	2020                	.2byte	0x2020
    2d12:	093a                	.2byte	0x93a
    2d14:	0000                	.2byte	0x0
    2d16:	0000                	.2byte	0x0
    2d18:	65746153          	.4byte	0x65746153
    2d1c:	6c6c                	.2byte	0x6c6c
    2d1e:	7469                	.2byte	0x7469
    2d20:	7365                	.2byte	0x7365
    2d22:	093a                	.2byte	0x93a
    2d24:	0000                	.2byte	0x0
    2d26:	0000                	.2byte	0x0
    2d28:	4724                	.2byte	0x4724
    2d2a:	524e                	.2byte	0x524e
    2d2c:	434d                	.2byte	0x434d
    2d2e:	0000                	.2byte	0x0
    2d30:	4724                	.2byte	0x4724
    2d32:	5250                	.2byte	0x5250
    2d34:	434d                	.2byte	0x434d
    2d36:	0000                	.2byte	0x0
    2d38:	6144                	.2byte	0x6144
    2d3a:	6574                	.2byte	0x6574
    2d3c:	2020                	.2byte	0x2020
    2d3e:	3a20                	.2byte	0x3a20
    2d40:	0009                	.2byte	0x9
    2d42:	0000                	.2byte	0x0
    2d44:	6964                	.2byte	0x6964
    2d46:	3a61                	.2byte	0x3a61
    2d48:	0020                	.2byte	0x20
    2d4a:	0000                	.2byte	0x0
    2d4c:	2020                	.2byte	0x2020
    2d4e:	656d                	.2byte	0x656d
    2d50:	00203a73          	.4byte	0x203a73
    2d54:	2020                	.2byte	0x2020
    2d56:	6e61                	.2byte	0x6e61
    2d58:	6f69                	.2byte	0x6f69
    2d5a:	203a                	.2byte	0x203a
    2d5c:	0000                	.2byte	0x0
    2d5e:	0000                	.2byte	0x0
    2d60:	0a0a                	.2byte	0xa0a
    2d62:	2d2d                	.2byte	0x2d2d
    2d64:	2d2d                	.2byte	0x2d2d
    2d66:	2d2d                	.2byte	0x2d2d
    2d68:	2d2d                	.2byte	0x2d2d
    2d6a:	2d2d                	.2byte	0x2d2d
    2d6c:	2d2d                	.2byte	0x2d2d
    2d6e:	2d2d                	.2byte	0x2d2d
    2d70:	2d2d                	.2byte	0x2d2d
    2d72:	2d2d                	.2byte	0x2d2d
    2d74:	2d2d                	.2byte	0x2d2d
    2d76:	2d2d                	.2byte	0x2d2d
    2d78:	2d2d                	.2byte	0x2d2d
    2d7a:	2d2d                	.2byte	0x2d2d
    2d7c:	2d2d                	.2byte	0x2d2d
    2d7e:	2d2d                	.2byte	0x2d2d
    2d80:	2d2d                	.2byte	0x2d2d
    2d82:	2d2d                	.2byte	0x2d2d
    2d84:	5020                	.2byte	0x5020
    2d86:	4e49                	.2byte	0x4e49
    2d88:	5345                	.2byte	0x5345
    2d8a:	4720                	.2byte	0x4720
    2d8c:	4950                	.2byte	0x4950
    2d8e:	204e                	.2byte	0x204e
    2d90:	2d2d                	.2byte	0x2d2d
    2d92:	2d2d                	.2byte	0x2d2d
    2d94:	2d2d                	.2byte	0x2d2d
    2d96:	2d2d                	.2byte	0x2d2d
    2d98:	2d2d                	.2byte	0x2d2d
    2d9a:	2d2d                	.2byte	0x2d2d
    2d9c:	2d2d                	.2byte	0x2d2d
    2d9e:	2d2d                	.2byte	0x2d2d
    2da0:	2d2d                	.2byte	0x2d2d
    2da2:	2d2d                	.2byte	0x2d2d
    2da4:	2d2d                	.2byte	0x2d2d
    2da6:	2d2d                	.2byte	0x2d2d
    2da8:	2d2d                	.2byte	0x2d2d
    2daa:	2d2d                	.2byte	0x2d2d
    2dac:	2d2d                	.2byte	0x2d2d
    2dae:	2d2d                	.2byte	0x2d2d
    2db0:	2d2d                	.2byte	0x2d2d
    2db2:	0a0a                	.2byte	0xa0a
    2db4:	2020                	.2byte	0x2020
    2db6:	2020                	.2byte	0x2020
    2db8:	2020                	.2byte	0x2020
    2dba:	2020                	.2byte	0x2020
    2dbc:	2020                	.2byte	0x2020
    2dbe:	2020                	.2byte	0x2020
    2dc0:	2020                	.2byte	0x2020
    2dc2:	2020                	.2byte	0x2020
    2dc4:	2020                	.2byte	0x2020
    2dc6:	2020                	.2byte	0x2020
    2dc8:	2020                	.2byte	0x2020
    2dca:	2020                	.2byte	0x2020
    2dcc:	2020                	.2byte	0x2020
    2dce:	2020                	.2byte	0x2020
    2dd0:	2020                	.2byte	0x2020
    2dd2:	2020                	.2byte	0x2020
    2dd4:	2020                	.2byte	0x2020
    2dd6:	2020                	.2byte	0x2020
    2dd8:	2020                	.2byte	0x2020
    2dda:	314a                	.2byte	0x314a
    2ddc:	200a                	.2byte	0x200a
    2dde:	2d2d                	.2byte	0x2d2d
    2de0:	202d                	.2byte	0x202d
    2de2:	2d2d                	.2byte	0x2d2d
    2de4:	202d                	.2byte	0x202d
    2de6:	2d2d                	.2byte	0x2d2d
    2de8:	202d                	.2byte	0x202d
    2dea:	2d2d                	.2byte	0x2d2d
    2dec:	202d                	.2byte	0x202d
    2dee:	2d2d                	.2byte	0x2d2d
    2df0:	202d                	.2byte	0x202d
    2df2:	2d2d                	.2byte	0x2d2d
    2df4:	202d                	.2byte	0x202d
    2df6:	2d2d                	.2byte	0x2d2d
    2df8:	202d                	.2byte	0x202d
    2dfa:	2d2d                	.2byte	0x2d2d
    2dfc:	202d                	.2byte	0x202d
    2dfe:	2d2d                	.2byte	0x2d2d
    2e00:	202d                	.2byte	0x202d
    2e02:	2d2d                	.2byte	0x2d2d
    2e04:	202d                	.2byte	0x202d
    2e06:	2d2d                	.2byte	0x2d2d
    2e08:	202d                	.2byte	0x202d
    2e0a:	2d2d                	.2byte	0x2d2d
    2e0c:	202d                	.2byte	0x202d
    2e0e:	2d2d                	.2byte	0x2d2d
    2e10:	202d                	.2byte	0x202d
    2e12:	2d2d                	.2byte	0x2d2d
    2e14:	202d                	.2byte	0x202d
    2e16:	2d2d                	.2byte	0x2d2d
    2e18:	202d                	.2byte	0x202d
    2e1a:	2d2d                	.2byte	0x2d2d
    2e1c:	202d                	.2byte	0x202d
    2e1e:	2d2d                	.2byte	0x2d2d
    2e20:	202d                	.2byte	0x202d
    2e22:	2d2d                	.2byte	0x2d2d
    2e24:	202d                	.2byte	0x202d
    2e26:	2d2d                	.2byte	0x2d2d
    2e28:	202d                	.2byte	0x202d
    2e2a:	2d2d                	.2byte	0x2d2d
    2e2c:	0a2d                	.2byte	0xa2d
    2e2e:	207c                	.2byte	0x207c
    2e30:	2078                	.2byte	0x2078
    2e32:	207c                	.2byte	0x207c
    2e34:	2078                	.2byte	0x2078
    2e36:	207c                	.2byte	0x207c
    2e38:	2078                	.2byte	0x2078
    2e3a:	207c                	.2byte	0x207c
    2e3c:	2078                	.2byte	0x2078
    2e3e:	207c                	.2byte	0x207c
    2e40:	2078                	.2byte	0x2078
    2e42:	207c                	.2byte	0x207c
    2e44:	2078                	.2byte	0x2078
    2e46:	207c                	.2byte	0x207c
    2e48:	2078                	.2byte	0x2078
    2e4a:	207c                	.2byte	0x207c
    2e4c:	2078                	.2byte	0x2078
    2e4e:	207c                	.2byte	0x207c
    2e50:	2078                	.2byte	0x2078
    2e52:	207c                	.2byte	0x207c
    2e54:	2078                	.2byte	0x2078
    2e56:	207c                	.2byte	0x207c
    2e58:	2078                	.2byte	0x2078
    2e5a:	207c                	.2byte	0x207c
    2e5c:	2078                	.2byte	0x2078
    2e5e:	207c                	.2byte	0x207c
    2e60:	2078                	.2byte	0x2078
    2e62:	207c                	.2byte	0x207c
    2e64:	2078                	.2byte	0x2078
    2e66:	207c                	.2byte	0x207c
    2e68:	2078                	.2byte	0x2078
    2e6a:	207c                	.2byte	0x207c
    2e6c:	2078                	.2byte	0x2078
    2e6e:	207c                	.2byte	0x207c
    2e70:	2078                	.2byte	0x2078
    2e72:	207c                	.2byte	0x207c
    2e74:	2078                	.2byte	0x2078
    2e76:	207c                	.2byte	0x207c
    2e78:	2078                	.2byte	0x2078
    2e7a:	207c                	.2byte	0x207c
    2e7c:	2078                	.2byte	0x2078
    2e7e:	0a7c                	.2byte	0xa7c
    2e80:	2d20                	.2byte	0x2d20
    2e82:	2d2d                	.2byte	0x2d2d
    2e84:	2d20                	.2byte	0x2d20
    2e86:	2d2d                	.2byte	0x2d2d
    2e88:	2d20                	.2byte	0x2d20
    2e8a:	2d2d                	.2byte	0x2d2d
    2e8c:	2d20                	.2byte	0x2d20
    2e8e:	2d2d                	.2byte	0x2d2d
    2e90:	2d20                	.2byte	0x2d20
    2e92:	2d2d                	.2byte	0x2d2d
    2e94:	2d20                	.2byte	0x2d20
    2e96:	2d2d                	.2byte	0x2d2d
    2e98:	2d20                	.2byte	0x2d20
    2e9a:	2d2d                	.2byte	0x2d2d
    2e9c:	2d20                	.2byte	0x2d20
    2e9e:	2d2d                	.2byte	0x2d2d
    2ea0:	2d20                	.2byte	0x2d20
    2ea2:	2d2d                	.2byte	0x2d2d
    2ea4:	2d20                	.2byte	0x2d20
    2ea6:	2d2d                	.2byte	0x2d2d
    2ea8:	2d20                	.2byte	0x2d20
    2eaa:	2d2d                	.2byte	0x2d2d
    2eac:	2d20                	.2byte	0x2d20
    2eae:	2d2d                	.2byte	0x2d2d
    2eb0:	2d20                	.2byte	0x2d20
    2eb2:	2d2d                	.2byte	0x2d2d
    2eb4:	2d20                	.2byte	0x2d20
    2eb6:	2d2d                	.2byte	0x2d2d
    2eb8:	2d20                	.2byte	0x2d20
    2eba:	2d2d                	.2byte	0x2d2d
    2ebc:	2d20                	.2byte	0x2d20
    2ebe:	2d2d                	.2byte	0x2d2d
    2ec0:	2d20                	.2byte	0x2d20
    2ec2:	2d2d                	.2byte	0x2d2d
    2ec4:	2d20                	.2byte	0x2d20
    2ec6:	2d2d                	.2byte	0x2d2d
    2ec8:	2d20                	.2byte	0x2d20
    2eca:	2d2d                	.2byte	0x2d2d
    2ecc:	2d20                	.2byte	0x2d20
    2ece:	2d2d                	.2byte	0x2d2d
    2ed0:	200a                	.2byte	0x200a
    2ed2:	2d2d                	.2byte	0x2d2d
    2ed4:	202d                	.2byte	0x202d
    2ed6:	2d2d                	.2byte	0x2d2d
    2ed8:	202d                	.2byte	0x202d
    2eda:	2d2d                	.2byte	0x2d2d
    2edc:	202d                	.2byte	0x202d
    2ede:	2d2d                	.2byte	0x2d2d
    2ee0:	202d                	.2byte	0x202d
    2ee2:	2d2d                	.2byte	0x2d2d
    2ee4:	202d                	.2byte	0x202d
    2ee6:	2d2d                	.2byte	0x2d2d
    2ee8:	202d                	.2byte	0x202d
    2eea:	2d2d                	.2byte	0x2d2d
    2eec:	202d                	.2byte	0x202d
    2eee:	2d2d                	.2byte	0x2d2d
    2ef0:	202d                	.2byte	0x202d
    2ef2:	2d2d                	.2byte	0x2d2d
    2ef4:	202d                	.2byte	0x202d
    2ef6:	2d2d                	.2byte	0x2d2d
    2ef8:	202d                	.2byte	0x202d
    2efa:	2d2d                	.2byte	0x2d2d
    2efc:	202d                	.2byte	0x202d
    2efe:	2d2d                	.2byte	0x2d2d
    2f00:	202d                	.2byte	0x202d
    2f02:	2d2d                	.2byte	0x2d2d
    2f04:	202d                	.2byte	0x202d
    2f06:	2d2d                	.2byte	0x2d2d
    2f08:	202d                	.2byte	0x202d
    2f0a:	2d2d                	.2byte	0x2d2d
    2f0c:	202d                	.2byte	0x202d
    2f0e:	2d2d                	.2byte	0x2d2d
    2f10:	202d                	.2byte	0x202d
    2f12:	2d2d                	.2byte	0x2d2d
    2f14:	202d                	.2byte	0x202d
    2f16:	2d2d                	.2byte	0x2d2d
    2f18:	202d                	.2byte	0x202d
    2f1a:	2d2d                	.2byte	0x2d2d
    2f1c:	202d                	.2byte	0x202d
    2f1e:	2d2d                	.2byte	0x2d2d
    2f20:	0a2d                	.2byte	0xa2d
    2f22:	207c                	.2byte	0x207c
    2f24:	2078                	.2byte	0x2078
    2f26:	207c                	.2byte	0x207c
    2f28:	2078                	.2byte	0x2078
    2f2a:	207c                	.2byte	0x207c
    2f2c:	2078                	.2byte	0x2078
    2f2e:	207c                	.2byte	0x207c
    2f30:	2078                	.2byte	0x2078
    2f32:	207c                	.2byte	0x207c
    2f34:	2078                	.2byte	0x2078
    2f36:	207c                	.2byte	0x207c
    2f38:	2078                	.2byte	0x2078
    2f3a:	207c                	.2byte	0x207c
    2f3c:	2078                	.2byte	0x2078
    2f3e:	207c                	.2byte	0x207c
    2f40:	2078                	.2byte	0x2078
    2f42:	207c                	.2byte	0x207c
    2f44:	2078                	.2byte	0x2078
    2f46:	207c                	.2byte	0x207c
    2f48:	2078                	.2byte	0x2078
    2f4a:	207c                	.2byte	0x207c
    2f4c:	2078                	.2byte	0x2078
    2f4e:	477c                	.2byte	0x477c
    2f50:	3750                	.2byte	0x3750
    2f52:	477c                	.2byte	0x477c
    2f54:	3650                	.2byte	0x3650
    2f56:	477c                	.2byte	0x477c
    2f58:	3550                	.2byte	0x3550
    2f5a:	477c                	.2byte	0x477c
    2f5c:	3450                	.2byte	0x3450
    2f5e:	477c                	.2byte	0x477c
    2f60:	3350                	.2byte	0x3350
    2f62:	477c                	.2byte	0x477c
    2f64:	3250                	.2byte	0x3250
    2f66:	477c                	.2byte	0x477c
    2f68:	3150                	.2byte	0x3150
    2f6a:	477c                	.2byte	0x477c
    2f6c:	3050                	.2byte	0x3050
    2f6e:	207c                	.2byte	0x207c
    2f70:	2078                	.2byte	0x2078
    2f72:	0a7c                	.2byte	0xa7c
    2f74:	2d20                	.2byte	0x2d20
    2f76:	2d2d                	.2byte	0x2d2d
    2f78:	2d20                	.2byte	0x2d20
    2f7a:	2d2d                	.2byte	0x2d2d
    2f7c:	2d20                	.2byte	0x2d20
    2f7e:	2d2d                	.2byte	0x2d2d
    2f80:	2d20                	.2byte	0x2d20
    2f82:	2d2d                	.2byte	0x2d2d
    2f84:	2d20                	.2byte	0x2d20
    2f86:	2d2d                	.2byte	0x2d2d
    2f88:	2d20                	.2byte	0x2d20
    2f8a:	2d2d                	.2byte	0x2d2d
    2f8c:	2d20                	.2byte	0x2d20
    2f8e:	2d2d                	.2byte	0x2d2d
    2f90:	2d20                	.2byte	0x2d20
    2f92:	2d2d                	.2byte	0x2d2d
    2f94:	2d20                	.2byte	0x2d20
    2f96:	2d2d                	.2byte	0x2d2d
    2f98:	2d20                	.2byte	0x2d20
    2f9a:	2d2d                	.2byte	0x2d2d
    2f9c:	2d20                	.2byte	0x2d20
    2f9e:	2d2d                	.2byte	0x2d2d
    2fa0:	2d20                	.2byte	0x2d20
    2fa2:	2d2d                	.2byte	0x2d2d
    2fa4:	2d20                	.2byte	0x2d20
    2fa6:	2d2d                	.2byte	0x2d2d
    2fa8:	2d20                	.2byte	0x2d20
    2faa:	2d2d                	.2byte	0x2d2d
    2fac:	2d20                	.2byte	0x2d20
    2fae:	2d2d                	.2byte	0x2d2d
    2fb0:	2d20                	.2byte	0x2d20
    2fb2:	2d2d                	.2byte	0x2d2d
    2fb4:	2d20                	.2byte	0x2d20
    2fb6:	2d2d                	.2byte	0x2d2d
    2fb8:	2d20                	.2byte	0x2d20
    2fba:	2d2d                	.2byte	0x2d2d
    2fbc:	2d20                	.2byte	0x2d20
    2fbe:	2d2d                	.2byte	0x2d2d
    2fc0:	2d20                	.2byte	0x2d20
    2fc2:	2d2d                	.2byte	0x2d2d
    2fc4:	0a0a                	.2byte	0xa0a
    2fc6:	200a                	.2byte	0x200a
    2fc8:	2020                	.2byte	0x2020
    2fca:	2020                	.2byte	0x2020
    2fcc:	2020                	.2byte	0x2020
    2fce:	2020                	.2byte	0x2020
    2fd0:	2020                	.2byte	0x2020
    2fd2:	2020                	.2byte	0x2020
    2fd4:	2020                	.2byte	0x2020
    2fd6:	2020                	.2byte	0x2020
    2fd8:	2020                	.2byte	0x2020
    2fda:	2020                	.2byte	0x2020
    2fdc:	2020                	.2byte	0x2020
    2fde:	2020                	.2byte	0x2020
    2fe0:	2020                	.2byte	0x2020
    2fe2:	2020                	.2byte	0x2020
    2fe4:	2020                	.2byte	0x2020
    2fe6:	2020                	.2byte	0x2020
    2fe8:	2020                	.2byte	0x2020
    2fea:	2020                	.2byte	0x2020
    2fec:	4a20                	.2byte	0x4a20
    2fee:	0a32                	.2byte	0xa32
    2ff0:	2d20                	.2byte	0x2d20
    2ff2:	2d2d                	.2byte	0x2d2d
    2ff4:	2d20                	.2byte	0x2d20
    2ff6:	2d2d                	.2byte	0x2d2d
    2ff8:	2d20                	.2byte	0x2d20
    2ffa:	2d2d                	.2byte	0x2d2d
    2ffc:	2d20                	.2byte	0x2d20
    2ffe:	2d2d                	.2byte	0x2d2d
    3000:	2d20                	.2byte	0x2d20
    3002:	2d2d                	.2byte	0x2d2d
    3004:	2d20                	.2byte	0x2d20
    3006:	2d2d                	.2byte	0x2d2d
    3008:	2d20                	.2byte	0x2d20
    300a:	2d2d                	.2byte	0x2d2d
    300c:	2d20                	.2byte	0x2d20
    300e:	2d2d                	.2byte	0x2d2d
    3010:	2d20                	.2byte	0x2d20
    3012:	2d2d                	.2byte	0x2d2d
    3014:	2d20                	.2byte	0x2d20
    3016:	2d2d                	.2byte	0x2d2d
    3018:	2d20                	.2byte	0x2d20
    301a:	2d2d                	.2byte	0x2d2d
    301c:	2d20                	.2byte	0x2d20
    301e:	2d2d                	.2byte	0x2d2d
    3020:	2d20                	.2byte	0x2d20
    3022:	2d2d                	.2byte	0x2d2d
    3024:	2d20                	.2byte	0x2d20
    3026:	2d2d                	.2byte	0x2d2d
    3028:	2d20                	.2byte	0x2d20
    302a:	2d2d                	.2byte	0x2d2d
    302c:	2d20                	.2byte	0x2d20
    302e:	2d2d                	.2byte	0x2d2d
    3030:	2d20                	.2byte	0x2d20
    3032:	2d2d                	.2byte	0x2d2d
    3034:	2d20                	.2byte	0x2d20
    3036:	2d2d                	.2byte	0x2d2d
    3038:	2d20                	.2byte	0x2d20
    303a:	2d2d                	.2byte	0x2d2d
    303c:	2d20                	.2byte	0x2d20
    303e:	2d2d                	.2byte	0x2d2d
    3040:	7c0a                	.2byte	0x7c0a
    3042:	7820                	.2byte	0x7820
    3044:	7c20                	.2byte	0x7c20
    3046:	7820                	.2byte	0x7820
    3048:	7c20                	.2byte	0x7c20
    304a:	7820                	.2byte	0x7820
    304c:	7c20                	.2byte	0x7c20
    304e:	7820                	.2byte	0x7820
    3050:	7c20                	.2byte	0x7c20
    3052:	7820                	.2byte	0x7820
    3054:	7c20                	.2byte	0x7c20
    3056:	7820                	.2byte	0x7820
    3058:	7c20                	.2byte	0x7c20
    305a:	7820                	.2byte	0x7820
    305c:	7c20                	.2byte	0x7c20
    305e:	7820                	.2byte	0x7820
    3060:	7c20                	.2byte	0x7c20
    3062:	7820                	.2byte	0x7820
    3064:	7c20                	.2byte	0x7c20
    3066:	7820                	.2byte	0x7820
    3068:	7c20                	.2byte	0x7c20
    306a:	7820                	.2byte	0x7820
    306c:	7c20                	.2byte	0x7c20
    306e:	7820                	.2byte	0x7820
    3070:	7c20                	.2byte	0x7c20
    3072:	7820                	.2byte	0x7820
    3074:	7c20                	.2byte	0x7c20
    3076:	7820                	.2byte	0x7820
    3078:	7c20                	.2byte	0x7c20
    307a:	7820                	.2byte	0x7820
    307c:	7c20                	.2byte	0x7c20
    307e:	7820                	.2byte	0x7820
    3080:	7c20                	.2byte	0x7c20
    3082:	7820                	.2byte	0x7820
    3084:	7c20                	.2byte	0x7c20
    3086:	7820                	.2byte	0x7820
    3088:	7c20                	.2byte	0x7c20
    308a:	7820                	.2byte	0x7820
    308c:	7c20                	.2byte	0x7c20
    308e:	7820                	.2byte	0x7820
    3090:	7c20                	.2byte	0x7c20
    3092:	200a                	.2byte	0x200a
    3094:	2d2d                	.2byte	0x2d2d
    3096:	202d                	.2byte	0x202d
    3098:	2d2d                	.2byte	0x2d2d
    309a:	202d                	.2byte	0x202d
    309c:	2d2d                	.2byte	0x2d2d
    309e:	202d                	.2byte	0x202d
    30a0:	2d2d                	.2byte	0x2d2d
    30a2:	202d                	.2byte	0x202d
    30a4:	2d2d                	.2byte	0x2d2d
    30a6:	202d                	.2byte	0x202d
    30a8:	2d2d                	.2byte	0x2d2d
    30aa:	202d                	.2byte	0x202d
    30ac:	2d2d                	.2byte	0x2d2d
    30ae:	202d                	.2byte	0x202d
    30b0:	2d2d                	.2byte	0x2d2d
    30b2:	202d                	.2byte	0x202d
    30b4:	2d2d                	.2byte	0x2d2d
    30b6:	202d                	.2byte	0x202d
    30b8:	2d2d                	.2byte	0x2d2d
    30ba:	202d                	.2byte	0x202d
    30bc:	2d2d                	.2byte	0x2d2d
    30be:	202d                	.2byte	0x202d
    30c0:	2d2d                	.2byte	0x2d2d
    30c2:	202d                	.2byte	0x202d
    30c4:	2d2d                	.2byte	0x2d2d
    30c6:	202d                	.2byte	0x202d
    30c8:	2d2d                	.2byte	0x2d2d
    30ca:	202d                	.2byte	0x202d
    30cc:	2d2d                	.2byte	0x2d2d
    30ce:	202d                	.2byte	0x202d
    30d0:	2d2d                	.2byte	0x2d2d
    30d2:	202d                	.2byte	0x202d
    30d4:	2d2d                	.2byte	0x2d2d
    30d6:	202d                	.2byte	0x202d
    30d8:	2d2d                	.2byte	0x2d2d
    30da:	202d                	.2byte	0x202d
    30dc:	2d2d                	.2byte	0x2d2d
    30de:	202d                	.2byte	0x202d
    30e0:	2d2d                	.2byte	0x2d2d
    30e2:	0a2d                	.2byte	0xa2d
    30e4:	2d20                	.2byte	0x2d20
    30e6:	2d2d                	.2byte	0x2d2d
    30e8:	2d20                	.2byte	0x2d20
    30ea:	2d2d                	.2byte	0x2d2d
    30ec:	2d20                	.2byte	0x2d20
    30ee:	2d2d                	.2byte	0x2d2d
    30f0:	2d20                	.2byte	0x2d20
    30f2:	2d2d                	.2byte	0x2d2d
    30f4:	2d20                	.2byte	0x2d20
    30f6:	2d2d                	.2byte	0x2d2d
    30f8:	2d20                	.2byte	0x2d20
    30fa:	2d2d                	.2byte	0x2d2d
    30fc:	2d20                	.2byte	0x2d20
    30fe:	2d2d                	.2byte	0x2d2d
    3100:	2d20                	.2byte	0x2d20
    3102:	2d2d                	.2byte	0x2d2d
    3104:	2d20                	.2byte	0x2d20
    3106:	2d2d                	.2byte	0x2d2d
    3108:	2d20                	.2byte	0x2d20
    310a:	2d2d                	.2byte	0x2d2d
    310c:	2d20                	.2byte	0x2d20
    310e:	2d2d                	.2byte	0x2d2d
    3110:	2d20                	.2byte	0x2d20
    3112:	2d2d                	.2byte	0x2d2d
    3114:	2d20                	.2byte	0x2d20
    3116:	2d2d                	.2byte	0x2d2d
    3118:	2d20                	.2byte	0x2d20
    311a:	2d2d                	.2byte	0x2d2d
    311c:	2d20                	.2byte	0x2d20
    311e:	2d2d                	.2byte	0x2d2d
    3120:	2d20                	.2byte	0x2d20
    3122:	2d2d                	.2byte	0x2d2d
    3124:	2d20                	.2byte	0x2d20
    3126:	2d2d                	.2byte	0x2d2d
    3128:	2d20                	.2byte	0x2d20
    312a:	2d2d                	.2byte	0x2d2d
    312c:	2d20                	.2byte	0x2d20
    312e:	2d2d                	.2byte	0x2d2d
    3130:	2d20                	.2byte	0x2d20
    3132:	2d2d                	.2byte	0x2d2d
    3134:	7c0a                	.2byte	0x7c0a
    3136:	7820                	.2byte	0x7820
    3138:	7c20                	.2byte	0x7c20
    313a:	7820                	.2byte	0x7820
    313c:	7c20                	.2byte	0x7c20
    313e:	7820                	.2byte	0x7820
    3140:	7c20                	.2byte	0x7c20
    3142:	7820                	.2byte	0x7820
    3144:	7c20                	.2byte	0x7c20
    3146:	7820                	.2byte	0x7820
    3148:	7c20                	.2byte	0x7c20
    314a:	7820                	.2byte	0x7820
    314c:	7c20                	.2byte	0x7c20
    314e:	7820                	.2byte	0x7820
    3150:	7c20                	.2byte	0x7c20
    3152:	7820                	.2byte	0x7820
    3154:	7c20                	.2byte	0x7c20
    3156:	7820                	.2byte	0x7820
    3158:	7c20                	.2byte	0x7c20
    315a:	7820                	.2byte	0x7820
    315c:	7c20                	.2byte	0x7c20
    315e:	7820                	.2byte	0x7820
    3160:	7c20                	.2byte	0x7c20
    3162:	7820                	.2byte	0x7820
    3164:	7c20                	.2byte	0x7c20
    3166:	7820                	.2byte	0x7820
    3168:	7c20                	.2byte	0x7c20
    316a:	7820                	.2byte	0x7820
    316c:	7c20                	.2byte	0x7c20
    316e:	7820                	.2byte	0x7820
    3170:	7c20                	.2byte	0x7c20
    3172:	7820                	.2byte	0x7820
    3174:	7c20                	.2byte	0x7c20
    3176:	7820                	.2byte	0x7820
    3178:	7c20                	.2byte	0x7c20
    317a:	7820                	.2byte	0x7820
    317c:	7c20                	.2byte	0x7c20
    317e:	7820                	.2byte	0x7820
    3180:	7c20                	.2byte	0x7c20
    3182:	7820                	.2byte	0x7820
    3184:	7c20                	.2byte	0x7c20
    3186:	200a                	.2byte	0x200a
    3188:	2d2d                	.2byte	0x2d2d
    318a:	202d                	.2byte	0x202d
    318c:	2d2d                	.2byte	0x2d2d
    318e:	202d                	.2byte	0x202d
    3190:	2d2d                	.2byte	0x2d2d
    3192:	202d                	.2byte	0x202d
    3194:	2d2d                	.2byte	0x2d2d
    3196:	202d                	.2byte	0x202d
    3198:	2d2d                	.2byte	0x2d2d
    319a:	202d                	.2byte	0x202d
    319c:	2d2d                	.2byte	0x2d2d
    319e:	202d                	.2byte	0x202d
    31a0:	2d2d                	.2byte	0x2d2d
    31a2:	202d                	.2byte	0x202d
    31a4:	2d2d                	.2byte	0x2d2d
    31a6:	202d                	.2byte	0x202d
    31a8:	2d2d                	.2byte	0x2d2d
    31aa:	202d                	.2byte	0x202d
    31ac:	2d2d                	.2byte	0x2d2d
    31ae:	202d                	.2byte	0x202d
    31b0:	2d2d                	.2byte	0x2d2d
    31b2:	202d                	.2byte	0x202d
    31b4:	2d2d                	.2byte	0x2d2d
    31b6:	202d                	.2byte	0x202d
    31b8:	2d2d                	.2byte	0x2d2d
    31ba:	202d                	.2byte	0x202d
    31bc:	2d2d                	.2byte	0x2d2d
    31be:	202d                	.2byte	0x202d
    31c0:	2d2d                	.2byte	0x2d2d
    31c2:	202d                	.2byte	0x202d
    31c4:	2d2d                	.2byte	0x2d2d
    31c6:	202d                	.2byte	0x202d
    31c8:	2d2d                	.2byte	0x2d2d
    31ca:	202d                	.2byte	0x202d
    31cc:	2d2d                	.2byte	0x2d2d
    31ce:	202d                	.2byte	0x202d
    31d0:	2d2d                	.2byte	0x2d2d
    31d2:	202d                	.2byte	0x202d
    31d4:	2d2d                	.2byte	0x2d2d
    31d6:	0a2d                	.2byte	0xa2d
    31d8:	000a                	.2byte	0xa
    31da:	0000                	.2byte	0x0
    31dc:	4e495047          	.4byte	0x4e495047
    31e0:	003a                	.2byte	0x3a
    31e2:	0000                	.2byte	0x0
    31e4:	0a0a                	.2byte	0xa0a
    31e6:	380a                	.2byte	0x380a
    31e8:	3838                	.2byte	0x3838
    31ea:	3838                	.2byte	0x3838
    31ec:	3838                	.2byte	0x3838
    31ee:	3838                	.2byte	0x3838
    31f0:	2038                	.2byte	0x2038
    31f2:	3820                	.2byte	0x3820
    31f4:	3838                	.2byte	0x3838
    31f6:	3838                	.2byte	0x3838
    31f8:	3838                	.2byte	0x3838
    31fa:	2e62                	.2byte	0x2e62
    31fc:	2020                	.2byte	0x2020
    31fe:	3820                	.2byte	0x3820
    3200:	3838                	.2byte	0x3838
    3202:	3838                	.2byte	0x3838
    3204:	3838                	.2byte	0x3838
    3206:	3838                	.2byte	0x3838
    3208:	2038                	.2byte	0x2038
    320a:	3820                	.2byte	0x3820
    320c:	3838                	.2byte	0x3838
    320e:	3838                	.2byte	0x3838
    3210:	3838                	.2byte	0x3838
    3212:	3838                	.2byte	0x3838
    3214:	0a38                	.2byte	0xa38
    3216:	3838                	.2byte	0x3838
    3218:	2038                	.2byte	0x2038
    321a:	2020                	.2byte	0x2020
    321c:	3820                	.2byte	0x3820
    321e:	3838                	.2byte	0x3838
    3220:	2020                	.2byte	0x2020
    3222:	3838                	.2byte	0x3838
    3224:	2038                	.2byte	0x2038
    3226:	2020                	.2byte	0x2020
    3228:	3859                	.2byte	0x3859
    322a:	6238                	.2byte	0x6238
    322c:	2020                	.2byte	0x2020
    322e:	3838                	.2byte	0x3838
    3230:	2038                	.2byte	0x2038
    3232:	2020                	.2byte	0x2020
    3234:	3820                	.2byte	0x3820
    3236:	3838                	.2byte	0x3838
    3238:	2020                	.2byte	0x2020
    323a:	3838                	.2byte	0x3838
    323c:	2038                	.2byte	0x2038
    323e:	2020                	.2byte	0x2020
    3240:	3820                	.2byte	0x3820
    3242:	3838                	.2byte	0x3838
    3244:	380a                	.2byte	0x380a
    3246:	3838                	.2byte	0x3838
    3248:	2020                	.2byte	0x2020
    324a:	2020                	.2byte	0x2020
    324c:	3838                	.2byte	0x3838
    324e:	2038                	.2byte	0x2038
    3250:	3820                	.2byte	0x3820
    3252:	3838                	.2byte	0x3838
    3254:	2020                	.2byte	0x2020
    3256:	2020                	.2byte	0x2020
    3258:	3838                	.2byte	0x3838
    325a:	2038                	.2byte	0x2038
    325c:	3820                	.2byte	0x3820
    325e:	3838                	.2byte	0x3838
    3260:	2020                	.2byte	0x2020
    3262:	2020                	.2byte	0x2020
    3264:	3838                	.2byte	0x3838
    3266:	2038                	.2byte	0x2038
    3268:	3820                	.2byte	0x3820
    326a:	3838                	.2byte	0x3838
    326c:	2020                	.2byte	0x2020
    326e:	2020                	.2byte	0x2020
    3270:	3838                	.2byte	0x3838
    3272:	0a38                	.2byte	0xa38
    3274:	3838                	.2byte	0x3838
    3276:	3838                	.2byte	0x3838
    3278:	3838                	.2byte	0x3838
    327a:	3838                	.2byte	0x3838
    327c:	3838                	.2byte	0x3838
    327e:	2020                	.2byte	0x2020
    3280:	3838                	.2byte	0x3838
    3282:	2038                	.2byte	0x2038
    3284:	2020                	.2byte	0x2020
    3286:	3864                	.2byte	0x3864
    3288:	5038                	.2byte	0x5038
    328a:	2020                	.2byte	0x2020
    328c:	3838                	.2byte	0x3838
    328e:	2038                	.2byte	0x2038
    3290:	2020                	.2byte	0x2020
    3292:	3820                	.2byte	0x3820
    3294:	3838                	.2byte	0x3838
    3296:	2020                	.2byte	0x2020
    3298:	3838                	.2byte	0x3838
    329a:	2038                	.2byte	0x2038
    329c:	2020                	.2byte	0x2020
    329e:	3820                	.2byte	0x3820
    32a0:	3838                	.2byte	0x3838
    32a2:	380a                	.2byte	0x380a
    32a4:	3838                	.2byte	0x3838
    32a6:	2020                	.2byte	0x2020
    32a8:	2020                	.2byte	0x2020
    32aa:	2020                	.2byte	0x2020
    32ac:	2020                	.2byte	0x2020
    32ae:	3820                	.2byte	0x3820
    32b0:	3838                	.2byte	0x3838
    32b2:	3838                	.2byte	0x3838
    32b4:	3838                	.2byte	0x3838
    32b6:	2050                	.2byte	0x2050
    32b8:	2020                	.2byte	0x2020
    32ba:	3820                	.2byte	0x3820
    32bc:	3838                	.2byte	0x3838
    32be:	3838                	.2byte	0x3838
    32c0:	3838                	.2byte	0x3838
    32c2:	3838                	.2byte	0x3838
    32c4:	2038                	.2byte	0x2038
    32c6:	3820                	.2byte	0x3820
    32c8:	3838                	.2byte	0x3838
    32ca:	2020                	.2byte	0x2020
    32cc:	2020                	.2byte	0x2020
    32ce:	3838                	.2byte	0x3838
    32d0:	0a38                	.2byte	0xa38
    32d2:	3838                	.2byte	0x3838
    32d4:	2038                	.2byte	0x2038
    32d6:	2020                	.2byte	0x2020
    32d8:	2020                	.2byte	0x2020
    32da:	2020                	.2byte	0x2020
    32dc:	2020                	.2byte	0x2020
    32de:	3838                	.2byte	0x3838
    32e0:	2038                	.2byte	0x2038
    32e2:	3854                	.2byte	0x3854
    32e4:	6238                	.2byte	0x6238
    32e6:	2020                	.2byte	0x2020
    32e8:	2020                	.2byte	0x2020
    32ea:	3838                	.2byte	0x3838
    32ec:	2038                	.2byte	0x2038
    32ee:	2020                	.2byte	0x2020
    32f0:	3820                	.2byte	0x3820
    32f2:	3838                	.2byte	0x3838
    32f4:	2020                	.2byte	0x2020
    32f6:	3838                	.2byte	0x3838
    32f8:	2038                	.2byte	0x2038
    32fa:	2020                	.2byte	0x2020
    32fc:	3820                	.2byte	0x3820
    32fe:	3838                	.2byte	0x3838
    3300:	380a                	.2byte	0x380a
    3302:	3838                	.2byte	0x3838
    3304:	2020                	.2byte	0x2020
    3306:	2020                	.2byte	0x2020
    3308:	2020                	.2byte	0x2020
    330a:	2020                	.2byte	0x2020
    330c:	3820                	.2byte	0x3820
    330e:	3838                	.2byte	0x3838
    3310:	2020                	.2byte	0x2020
    3312:	3854                	.2byte	0x3854
    3314:	6238                	.2byte	0x6238
    3316:	2020                	.2byte	0x2020
    3318:	3820                	.2byte	0x3820
    331a:	3838                	.2byte	0x3838
    331c:	2020                	.2byte	0x2020
    331e:	2020                	.2byte	0x2020
    3320:	3838                	.2byte	0x3838
    3322:	2038                	.2byte	0x2038
    3324:	3820                	.2byte	0x3820
    3326:	3838                	.2byte	0x3838
    3328:	2020                	.2byte	0x2020
    332a:	2020                	.2byte	0x2020
    332c:	3838                	.2byte	0x3838
    332e:	0a38                	.2byte	0xa38
    3330:	3838                	.2byte	0x3838
    3332:	2038                	.2byte	0x2038
    3334:	2020                	.2byte	0x2020
    3336:	2020                	.2byte	0x2020
    3338:	2020                	.2byte	0x2020
    333a:	2020                	.2byte	0x2020
    333c:	3838                	.2byte	0x3838
    333e:	2038                	.2byte	0x2038
    3340:	2020                	.2byte	0x2020
    3342:	3854                	.2byte	0x3854
    3344:	6238                	.2byte	0x6238
    3346:	2020                	.2byte	0x2020
    3348:	3838                	.2byte	0x3838
    334a:	2038                	.2byte	0x2038
    334c:	2020                	.2byte	0x2020
    334e:	3820                	.2byte	0x3820
    3350:	3838                	.2byte	0x3838
    3352:	2020                	.2byte	0x2020
    3354:	3838                	.2byte	0x3838
    3356:	3838                	.2byte	0x3838
    3358:	3838                	.2byte	0x3838
    335a:	3838                	.2byte	0x3838
    335c:	3838                	.2byte	0x3838
    335e:	0a0a                	.2byte	0xa0a
    3360:	7449                	.2byte	0x7449
    3362:	6c412073          	.4byte	0x6c412073
    3366:	7669                	.2byte	0x7669
    3368:	2065                	.2byte	0x2065
    336a:	2d3a                	.2byte	0x2d3a
    336c:	0a29                	.2byte	0xa29
    336e:	000a                	.2byte	0xa
    3370:	6f48                	.2byte	0x6f48
    3372:	616c                	.2byte	0x616c
    3374:	6d20                	.2byte	0x6d20
    3376:	6e75                	.2byte	0x6e75
    3378:	6f64                	.2byte	0x6f64
    337a:	000a                	.2byte	0xa
    337c:	2d0a                	.2byte	0x2d0a
    337e:	2d2d                	.2byte	0x2d2d
    3380:	5420                	.2byte	0x5420
    3382:	5345                	.2byte	0x5345
    3384:	2054                	.2byte	0x2054
    3386:	2d2d                	.2byte	0x2d2d
    3388:	0a2d                	.2byte	0xa2d
    338a:	0000                	.2byte	0x0
    338c:	3e2d                	.2byte	0x3e2d
    338e:	7a20                	.2byte	0x7a20
    3390:	203a                	.2byte	0x203a
    3392:	654c                	.2byte	0x654c
    3394:	2065                	.2byte	0x2065
    3396:	6f6c                	.2byte	0x6f6c
    3398:	65722073          	.4byte	0x65722073
    339c:	74736967          	.4byte	0x74736967
    33a0:	6f72                	.2byte	0x6f72
    33a2:	65642073          	.4byte	0x65642073
    33a6:	206c                	.2byte	0x206c
    33a8:	7274                	.2byte	0x7274
    33aa:	6e61                	.2byte	0x6e61
    33ac:	70656373          	.4byte	0x70656373
    33b0:	6f74                	.2byte	0x6f74
    33b2:	2072                	.2byte	0x2072
    33b4:	6f4c                	.2byte	0x6f4c
    33b6:	6152                	.2byte	0x6152
    33b8:	000a                	.2byte	0xa
    33ba:	0000                	.2byte	0x0
    33bc:	3e2d                	.2byte	0x3e2d
    33be:	3520                	.2byte	0x3520
    33c0:	203a                	.2byte	0x203a
    33c2:	654c                	.2byte	0x654c
    33c4:	2065                	.2byte	0x2065
    33c6:	6f6c                	.2byte	0x6f6c
    33c8:	65722073          	.4byte	0x65722073
    33cc:	74736967          	.4byte	0x74736967
    33d0:	6f72                	.2byte	0x6f72
    33d2:	65642073          	.4byte	0x65642073
    33d6:	206c                	.2byte	0x206c
    33d8:	736e6573          	.4byte	0x736e6573
    33dc:	4220726f          	jal	tp,a7fe <_ebss+0x6d1a>
    33e0:	454d                	.2byte	0x454d
    33e2:	3836                	.2byte	0x3836
    33e4:	0a30                	.2byte	0xa30
    33e6:	0000                	.2byte	0x0
    33e8:	3e2d                	.2byte	0x3e2d
    33ea:	3420                	.2byte	0x3420
    33ec:	203a                	.2byte	0x203a
    33ee:	654c                	.2byte	0x654c
    33f0:	2065                	.2byte	0x2065
    33f2:	6f6c                	.2byte	0x6f6c
    33f4:	61632073          	.4byte	0x61632073
    33f8:	616e                	.2byte	0x616e
    33fa:	656c                	.2byte	0x656c
    33fc:	65642073          	.4byte	0x65642073
    3400:	206c                	.2byte	0x206c
    3402:	4441                	.2byte	0x4441
    3404:	00000a43          	.4byte	0xa43
    3408:	3e2d                	.2byte	0x3e2d
    340a:	3620                	.2byte	0x3620
    340c:	203a                	.2byte	0x203a
    340e:	6341                	.2byte	0x6341
    3410:	6974                	.2byte	0x6974
    3412:	6176                	.2byte	0x6176
    3414:	7365642f          	.4byte	0x7365642f
    3418:	6361                	.2byte	0x6361
    341a:	6974                	.2byte	0x6974
    341c:	6176                	.2byte	0x6176
    341e:	5320                	.2byte	0x5320
    3420:	4554                	.2byte	0x4554
    3422:	5550                	.2byte	0x5550
    3424:	5f50                	.2byte	0x5f50
    3426:	202c4543          	.4byte	0x202c4543
    342a:	6962                	.2byte	0x6962
    342c:	2074                	.2byte	0x2074
    342e:	756f7067          	.4byte	0x756f7067
    3432:	5b74                	.2byte	0x5b74
    3434:	5d34                	.2byte	0x5d34
    3436:	000a                	.2byte	0xa
    3438:	3e2d                	.2byte	0x3e2d
    343a:	3720                	.2byte	0x3720
    343c:	203a                	.2byte	0x203a
    343e:	6341                	.2byte	0x6341
    3440:	6974                	.2byte	0x6974
    3442:	6176                	.2byte	0x6176
    3444:	7365642f          	.4byte	0x7365642f
    3448:	6361                	.2byte	0x6361
    344a:	6974                	.2byte	0x6974
    344c:	6176                	.2byte	0x6176
    344e:	4420                	.2byte	0x4420
    3450:	5355                	.2byte	0x5355
    3452:	5f54                	.2byte	0x5f54
    3454:	4c525443          	.4byte	0x4c525443
    3458:	202c                	.2byte	0x202c
    345a:	6962                	.2byte	0x6962
    345c:	2074                	.2byte	0x2074
    345e:	756f7067          	.4byte	0x756f7067
    3462:	5b74                	.2byte	0x5b74
    3464:	000a5d37          	lui	s10,0xa5
    3468:	3e2d                	.2byte	0x3e2d
    346a:	3820                	.2byte	0x3820
    346c:	203a                	.2byte	0x203a
    346e:	6341                	.2byte	0x6341
    3470:	6974                	.2byte	0x6974
    3472:	6176                	.2byte	0x6176
    3474:	7365642f          	.4byte	0x7365642f
    3478:	6361                	.2byte	0x6361
    347a:	6974                	.2byte	0x6974
    347c:	6176                	.2byte	0x6176
    347e:	4720                	.2byte	0x4720
    3480:	5341                	.2byte	0x5341
    3482:	315f 3456 435f      	.byte	0x5f, 0x31, 0x56, 0x34, 0x5f, 0x43
    3488:	5254                	.2byte	0x5254
    348a:	2c4c                	.2byte	0x2c4c
    348c:	6220                	.2byte	0x6220
    348e:	7469                	.2byte	0x7469
    3490:	6720                	.2byte	0x6720
    3492:	6f70                	.2byte	0x6f70
    3494:	7475                	.2byte	0x7475
    3496:	0a5d365b          	.4byte	0xa5d365b
    349a:	0000                	.2byte	0x0
    349c:	3e2d                	.2byte	0x3e2d
    349e:	3920                	.2byte	0x3920
    34a0:	203a                	.2byte	0x203a
    34a2:	6341                	.2byte	0x6341
    34a4:	6974                	.2byte	0x6974
    34a6:	6176                	.2byte	0x6176
    34a8:	7365642f          	.4byte	0x7365642f
    34ac:	6361                	.2byte	0x6361
    34ae:	6974                	.2byte	0x6974
    34b0:	6176                	.2byte	0x6176
    34b2:	4720                	.2byte	0x4720
    34b4:	5341                	.2byte	0x5341
    34b6:	355f 5f56 5443      	.byte	0x5f, 0x35, 0x56, 0x5f, 0x43, 0x54
    34bc:	4c52                	.2byte	0x4c52
    34be:	202c                	.2byte	0x202c
    34c0:	6962                	.2byte	0x6962
    34c2:	2074                	.2byte	0x2074
    34c4:	756f7067          	.4byte	0x756f7067
    34c8:	5b74                	.2byte	0x5b74
    34ca:	5d35                	.2byte	0x5d35
    34cc:	000a                	.2byte	0xa
    34ce:	0000                	.2byte	0x0
    34d0:	3e2d                	.2byte	0x3e2d
    34d2:	7120                	.2byte	0x7120
    34d4:	203a                	.2byte	0x203a
    34d6:	746c6153          	.4byte	0x746c6153
    34da:	2061                	.2byte	0x2061
    34dc:	2061                	.2byte	0x2061
    34de:	616c                	.2byte	0x616c
    34e0:	6420                	.2byte	0x6420
    34e2:	7269                	.2byte	0x7269
    34e4:	6365                	.2byte	0x6365
    34e6:	6e6f6963          	bltu	t5,t1,3bd8 <_ebss+0xf4>
    34ea:	3020                	.2byte	0x3020
    34ec:	2820                	.2byte	0x2820
    34ee:	69736163          	bltu	t1,s7,3b70 <_ebss+0x8c>
    34f2:	6320                	.2byte	0x6320
    34f4:	206f6d6f          	jal	s10,f96fa <_ebss+0xf5c16>
    34f8:	6e75                	.2byte	0x6e75
    34fa:	7220                	.2byte	0x7220
    34fc:	7365                	.2byte	0x7365
    34fe:	7465                	.2byte	0x7465
    3500:	0a29                	.2byte	0xa29
    3502:	0000                	.2byte	0x0
    3504:	3e2d                	.2byte	0x3e2d
    3506:	7420                	.2byte	0x7420
    3508:	203a                	.2byte	0x203a
    350a:	7250                	.2byte	0x7250
    350c:	6575                	.2byte	0x6575
    350e:	6162                	.2byte	0x6162
    3510:	6520                	.2byte	0x6520
    3512:	206c                	.2byte	0x206c
    3514:	6574                	.2byte	0x6574
    3516:	706d                	.2byte	0x706d
    3518:	7a69726f          	jal	tp,9acbe <_ebss+0x971da>
    351c:	6461                	.2byte	0x6461
    351e:	6420726f          	jal	tp,ab60 <_ebss+0x707c>
    3522:	2065                	.2byte	0x2065
    3524:	6f6c                	.2byte	0x6f6c
    3526:	454c2073          	.4byte	0x454c2073
    352a:	2044                	.2byte	0x2044
    352c:	5428                	.2byte	0x5428
    352e:	3d20                	.2byte	0x3d20
    3530:	3020                	.2byte	0x3020
    3532:	352e                	.2byte	0x352e
    3534:	7320                	.2byte	0x7320
    3536:	6765                	.2byte	0x6765
    3538:	202c                	.2byte	0x202c
    353a:	6c61                	.2byte	0x6c61
    353c:	6120                	.2byte	0x6120
    353e:	7272                	.2byte	0x7272
    3540:	6e61                	.2byte	0x6e61
    3542:	20726163          	bltu	tp,t2,3744 <main+0xf4c>
    3546:	2031                	.2byte	0x2031
    3548:	29676573          	.4byte	0x29676573
    354c:	5b20                	.2byte	0x5b20
    354e:	4c42                	.2byte	0x4c42
    3550:	0a5d514f          	.4byte	0xa5d514f
    3554:	0000                	.2byte	0x0
    3556:	0000                	.2byte	0x0
    3558:	3e2d                	.2byte	0x3e2d
    355a:	6720                	.2byte	0x6720
    355c:	203a                	.2byte	0x203a
    355e:	6544                	.2byte	0x6544
    3560:	69646f63          	bltu	s0,s6,3bfe <_ebss+0x11a>
    3564:	6966                	.2byte	0x6966
    3566:	20726163          	bltu	tp,t2,3768 <main+0xf70>
    356a:	7254                	.2byte	0x7254
    356c:	6d61                	.2byte	0x6d61
    356e:	2061                	.2byte	0x2061
    3570:	20535047          	.4byte	0x20535047
    3574:	4528                	.2byte	0x4528
    3576:	72657073          	.4byte	0x72657073
    357a:	2061                	.2byte	0x2061
    357c:	7274                	.2byte	0x7274
    357e:	6d61                	.2byte	0x6d61
    3580:	2961                	.2byte	0x2961
    3582:	000a                	.2byte	0xa
    3584:	3e2d                	.2byte	0x3e2d
    3586:	6820                	.2byte	0x6820
    3588:	203a                	.2byte	0x203a
    358a:	614c                	.2byte	0x614c
    358c:	7320                	.2byte	0x7320
    358e:	6c61                	.2byte	0x6c61
    3590:	6469                	.2byte	0x6469
    3592:	2061                	.2byte	0x2061
    3594:	6564                	.2byte	0x6564
    3596:	206c                	.2byte	0x206c
    3598:	20535047          	.4byte	0x20535047
    359c:	5528                	.2byte	0x5528
    359e:	5241                	.2byte	0x5241
    35a0:	3154                	.2byte	0x3154
    35a2:	2029                	.2byte	0x2029
    35a4:	2061                	.2byte	0x2061
    35a6:	616c                	.2byte	0x616c
    35a8:	5520                	.2byte	0x5520
    35aa:	5241                	.2byte	0x5241
    35ac:	3054                	.2byte	0x3054
    35ae:	5b20                	.2byte	0x5b20
    35b0:	4c42                	.2byte	0x4c42
    35b2:	0a5d514f          	.4byte	0xa5d514f
    35b6:	0000                	.2byte	0x0
    35b8:	3e2d                	.2byte	0x3e2d
    35ba:	6b20                	.2byte	0x6b20
    35bc:	203a                	.2byte	0x203a
    35be:	614c                	.2byte	0x614c
    35c0:	7320                	.2byte	0x7320
    35c2:	6c61                	.2byte	0x6c61
    35c4:	6469                	.2byte	0x6469
    35c6:	2061                	.2byte	0x2061
    35c8:	6564                	.2byte	0x6564
    35ca:	6c20                	.2byte	0x6c20
    35cc:	2061                	.2byte	0x2061
    35ce:	4155                	.2byte	0x4155
    35d0:	5452                	.2byte	0x5452
    35d2:	2032                	.2byte	0x2032
    35d4:	2061                	.2byte	0x2061
    35d6:	616c                	.2byte	0x616c
    35d8:	5520                	.2byte	0x5520
    35da:	5241                	.2byte	0x5241
    35dc:	3054                	.2byte	0x3054
    35de:	5b20                	.2byte	0x5b20
    35e0:	4c42                	.2byte	0x4c42
    35e2:	0a5d514f          	.4byte	0xa5d514f
    35e6:	0000                	.2byte	0x0
    35e8:	3e2d                	.2byte	0x3e2d
    35ea:	6c20                	.2byte	0x6c20
    35ec:	203a                	.2byte	0x203a
    35ee:	654c                	.2byte	0x654c
    35f0:	2065                	.2byte	0x2065
    35f2:	7365                	.2byte	0x7365
    35f4:	6174                	.2byte	0x6174
    35f6:	6f64                	.2byte	0x6f64
    35f8:	6420                	.2byte	0x6420
    35fa:	6c65                	.2byte	0x6c65
    35fc:	5420                	.2byte	0x5420
    35fe:	4d49                	.2byte	0x4d49
    3600:	5245                	.2byte	0x5245
    3602:	000a                	.2byte	0xa
    3604:	3e2d                	.2byte	0x3e2d
    3606:	3120                	.2byte	0x3120
    3608:	203a                	.2byte	0x203a
    360a:	6950                	.2byte	0x6950
    360c:	746e                	.2byte	0x746e
    360e:	2061                	.2byte	0x2061
    3610:	656d                	.2byte	0x656d
    3612:	756e                	.2byte	0x756e
    3614:	7020                	.2byte	0x7020
    3616:	5520726f          	jal	tp,ab68 <_ebss+0x7084>
    361a:	5241                	.2byte	0x5241
    361c:	3054                	.2byte	0x3054
    361e:	000a                	.2byte	0xa
    3620:	3e2d                	.2byte	0x3e2d
    3622:	3220                	.2byte	0x3220
    3624:	203a                	.2byte	0x203a
    3626:	6e45                	.2byte	0x6e45
    3628:	6976                	.2byte	0x6976
    362a:	2061                	.2byte	0x2061
    362c:	6164                	.2byte	0x6164
    362e:	6f74                	.2byte	0x6f74
    3630:	6f702073          	.4byte	0x6f702073
    3634:	2072                	.2byte	0x2072
    3636:	4155                	.2byte	0x4155
    3638:	5452                	.2byte	0x5452
    363a:	2030                	.2byte	0x2030
    363c:	6976                	.2byte	0x6976
    363e:	2061                	.2byte	0x2061
    3640:	6e69                	.2byte	0x6e69
    3642:	6574                	.2byte	0x6574
    3644:	7272                	.2byte	0x7272
    3646:	7075                	.2byte	0x7075
    3648:	6e6f6963          	bltu	t5,t1,3d3a <_ebss+0x256>
    364c:	7365                	.2byte	0x7365
    364e:	0a20                	.2byte	0xa20
    3650:	0000                	.2byte	0x0
    3652:	0000                	.2byte	0x0
    3654:	3e2d                	.2byte	0x3e2d
    3656:	3320                	.2byte	0x3320
    3658:	203a                	.2byte	0x203a
    365a:	654c                	.2byte	0x654c
    365c:	72757463          	bgeu	a0,t2,3d84 <_ebss+0x2a0>
    3660:	2061                	.2byte	0x2061
    3662:	4e495047          	.4byte	0x4e495047
    3666:	0a20                	.2byte	0xa20
    3668:	0000                	.2byte	0x0
    366a:	0000                	.2byte	0x0
    366c:	3e2d                	.2byte	0x3e2d
    366e:	4720                	.2byte	0x4720
    3670:	203a                	.2byte	0x203a
    3672:	6341                	.2byte	0x6341
    3674:	6974                	.2byte	0x6974
    3676:	6176                	.2byte	0x6176
    3678:	2072                	.2byte	0x2072
    367a:	736e6573          	.4byte	0x736e6573
    367e:	4720726f          	jal	tp,aaf0 <_ebss+0x700c>
    3682:	5341                	.2byte	0x5341
    3684:	0a20                	.2byte	0xa20
    3686:	0000                	.2byte	0x0
    3688:	3e2d                	.2byte	0x3e2d
    368a:	5020                	.2byte	0x5020
    368c:	203a                	.2byte	0x203a
    368e:	6341                	.2byte	0x6341
    3690:	6974                	.2byte	0x6974
    3692:	6176                	.2byte	0x6176
    3694:	2072                	.2byte	0x2072
    3696:	736e6573          	.4byte	0x736e6573
    369a:	5020726f          	jal	tp,ab9c <_ebss+0x70b8>
    369e:	6f766c6f          	jal	s8,6a594 <_ebss+0x66ab0>
    36a2:	0a20                	.2byte	0xa20
    36a4:	0000                	.2byte	0x0
    36a6:	0000                	.2byte	0x0
    36a8:	3e2d                	.2byte	0x3e2d
    36aa:	4c20                	.2byte	0x4c20
    36ac:	203a                	.2byte	0x203a
    36ae:	7254                	.2byte	0x7254
    36b0:	6e61                	.2byte	0x6e61
    36b2:	74696d73          	.4byte	0x74696d73
    36b6:	7269                	.2byte	0x7269
    36b8:	6420                	.2byte	0x6420
    36ba:	7461                	.2byte	0x7461
    36bc:	7020736f          	jal	t1,adbe <_ebss+0x72da>
    36c0:	4c20726f          	jal	tp,ab82 <_ebss+0x709e>
    36c4:	2041526f          	jal	tp,188c8 <_ebss+0x14de4>
    36c8:	000a                	.2byte	0xa
    36ca:	0000                	.2byte	0x0
    36cc:	3e2d                	.2byte	0x3e2d
    36ce:	5420                	.2byte	0x5420
    36d0:	203a                	.2byte	0x203a
    36d2:	6556                	.2byte	0x6556
    36d4:	2072                	.2byte	0x2072
    36d6:	2f736147          	.4byte	0x2f736147
    36da:	6f50                	.2byte	0x6f50
    36dc:	766c                	.2byte	0x766c
    36de:	0a0a206f          	j	a577e <_ebss+0xa1c9a>
    36e2:	0000                	.2byte	0x0
    36e4:	6d6d6f43          	.4byte	0x6d6d6f43
    36e8:	6e61                	.2byte	0x6e61
    36ea:	2064                	.2byte	0x2064
    36ec:	35347a5b          	.4byte	0x35347a5b
    36f0:	3736                	.2byte	0x3736
    36f2:	3938                	.2byte	0x3938
    36f4:	7172                	.2byte	0x7172
    36f6:	6774                	.2byte	0x6774
    36f8:	32316c6b          	.4byte	0x32316c6b
    36fc:	4c504733          	.4byte	0x4c504733
    3700:	5d54                	.2byte	0x5d54
    3702:	203e                	.2byte	0x203e
    3704:	0000                	.2byte	0x0
    3706:	0000                	.2byte	0x0
    3708:	554f5047          	.4byte	0x554f5047
    370c:	2054                	.2byte	0x2054
    370e:	203d                	.2byte	0x203d
    3710:	0000                	.2byte	0x0
    3712:	0000                	.2byte	0x0
    3714:	2d2d                	.2byte	0x2d2d
    3716:	4720                	.2byte	0x4720
    3718:	4f50                	.2byte	0x4f50
    371a:	5455                	.2byte	0x5455
    371c:	4120                	.2byte	0x4120
    371e:	47495353          	.4byte	0x47495353
    3722:	4d4e                	.2byte	0x4d4e
    3724:	4e45                	.2byte	0x4e45
    3726:	5354                	.2byte	0x5354
    3728:	203a                	.2byte	0x203a
    372a:	2d2d                	.2byte	0x2d2d
    372c:	470a                	.2byte	0x470a
    372e:	4f50                	.2byte	0x4f50
    3730:	5455                	.2byte	0x5455
    3732:	205d305b          	.4byte	0x205d305b
    3736:	3e2d                	.2byte	0x3e2d
    3738:	6920                	.2byte	0x6920
    373a:	6c5f6563          	bltu	t5,t0,3e04 <_ebss+0x320>
    373e:	6465                	.2byte	0x6465
    3740:	0a31                	.2byte	0xa31
    3742:	554f5047          	.4byte	0x554f5047
    3746:	5b54                	.2byte	0x5b54
    3748:	5d31                	.2byte	0x5d31
    374a:	2d20                	.2byte	0x2d20
    374c:	203e                	.2byte	0x203e
    374e:	6369                	.2byte	0x6369
    3750:	5f65                	.2byte	0x5f65
    3752:	656c                	.2byte	0x656c
    3754:	3264                	.2byte	0x3264
    3756:	470a                	.2byte	0x470a
    3758:	4f50                	.2byte	0x4f50
    375a:	5455                	.2byte	0x5455
    375c:	205d325b          	.4byte	0x205d325b
    3760:	3e2d                	.2byte	0x3e2d
    3762:	6920                	.2byte	0x6920
    3764:	6c5f6563          	bltu	t5,t0,3e2e <_ebss+0x34a>
    3768:	6465                	.2byte	0x6465
    376a:	50470a33          	.4byte	0x50470a33
    376e:	5b54554f          	.4byte	0x5b54554f
    3772:	2d205d33          	.4byte	0x2d205d33
    3776:	203e                	.2byte	0x203e
    3778:	6369                	.2byte	0x6369
    377a:	5f65                	.2byte	0x5f65
    377c:	656c                	.2byte	0x656c
    377e:	3464                	.2byte	0x3464
    3780:	470a                	.2byte	0x470a
    3782:	4f50                	.2byte	0x4f50
    3784:	5455                	.2byte	0x5455
    3786:	205d345b          	.4byte	0x205d345b
    378a:	3e2d                	.2byte	0x3e2d
    378c:	5320                	.2byte	0x5320
    378e:	4554                	.2byte	0x4554
    3790:	5550                	.2byte	0x5550
    3792:	5f50                	.2byte	0x5f50
    3794:	470a4543          	.4byte	0x470a4543
    3798:	4f50                	.2byte	0x4f50
    379a:	5455                	.2byte	0x5455
    379c:	205d355b          	.4byte	0x205d355b
    37a0:	3e2d                	.2byte	0x3e2d
    37a2:	4720                	.2byte	0x4720
    37a4:	5341                	.2byte	0x5341
    37a6:	355f 5f56 5443      	.byte	0x5f, 0x35, 0x56, 0x5f, 0x43, 0x54
    37ac:	4c52                	.2byte	0x4c52
    37ae:	470a                	.2byte	0x470a
    37b0:	4f50                	.2byte	0x4f50
    37b2:	5455                	.2byte	0x5455
    37b4:	205d365b          	.4byte	0x205d365b
    37b8:	3e2d                	.2byte	0x3e2d
    37ba:	4720                	.2byte	0x4720
    37bc:	5341                	.2byte	0x5341
    37be:	315f 3456 435f      	.byte	0x5f, 0x31, 0x56, 0x34, 0x5f, 0x43
    37c4:	5254                	.2byte	0x5254
    37c6:	0a4c                	.2byte	0xa4c
    37c8:	554f5047          	.4byte	0x554f5047
    37cc:	5b54                	.2byte	0x5b54
    37ce:	2d205d37          	lui	s10,0x2d205
    37d2:	203e                	.2byte	0x203e
    37d4:	5544                	.2byte	0x5544
    37d6:	435f5453          	.4byte	0x435f5453
    37da:	5254                	.2byte	0x5254
    37dc:	0a4c                	.2byte	0xa4c
    37de:	2d2d                	.2byte	0x2d2d
    37e0:	2d2d                	.2byte	0x2d2d
    37e2:	2d2d                	.2byte	0x2d2d
    37e4:	2d2d                	.2byte	0x2d2d
    37e6:	2d2d                	.2byte	0x2d2d
    37e8:	2d2d                	.2byte	0x2d2d
    37ea:	2d2d                	.2byte	0x2d2d
    37ec:	2d2d                	.2byte	0x2d2d
    37ee:	2d2d                	.2byte	0x2d2d
    37f0:	2d2d                	.2byte	0x2d2d
    37f2:	2d2d                	.2byte	0x2d2d
    37f4:	2d2d                	.2byte	0x2d2d
    37f6:	0a2d                	.2byte	0xa2d
    37f8:	0000                	.2byte	0x0
    37fa:	0000                	.2byte	0x0
    37fc:	75636553          	.4byte	0x75636553
    3800:	6e65                	.2byte	0x6e65
    3802:	20616963          	bltu	sp,t1,3a14 <bmeRegs+0xac>
    3806:	6e49                	.2byte	0x6e49
    3808:	6369                	.2byte	0x6369
    380a:	6169                	.2byte	0x6169
    380c:	6164                	.2byte	0x6164
    380e:	0000                	.2byte	0x0
    3810:	540a                	.2byte	0x540a
    3812:	3a544e43          	.4byte	0x3a544e43
    3816:	2520                	.2byte	0x2520
    3818:	0a64                	.2byte	0xa64
    381a:	0000                	.2byte	0x0
    381c:	6f4e                	.2byte	0x6f4e
    381e:	7620                	.2byte	0x7620
    3820:	6c61                	.2byte	0x6c61
    3822:	6469                	.2byte	0x6469
    3824:	6320                	.2byte	0x6320
    3826:	2065646f          	jal	s0,59a2c <_ebss+0x55f48>
    382a:	656c6573          	.4byte	0x656c6573
    382e:	64657463          	bgeu	a0,t1,3e76 <_ebss+0x392>
    3832:	0000                	.2byte	0x0
    3834:	2d0a                	.2byte	0x2d0a
    3836:	2d2d                	.2byte	0x2d2d
    3838:	2d2d                	.2byte	0x2d2d
    383a:	2d2d                	.2byte	0x2d2d
    383c:	0a0a                	.2byte	0xa0a
	...
