Archive member included to satisfy reference by file (symbol)

c:/users/pablo/desktop/softwarefpga/tools/xpack-risc_v/bin/../lib/gcc/riscv-none-elf/12.2.0/rv32e/ilp32e\libgcc.a(muldi3.o)
                              C:\Users\pablo\AppData\Local\Temp\ccRxtbTd.o (__mulsi3)
c:/users/pablo/desktop/softwarefpga/tools/xpack-risc_v/bin/../lib/gcc/riscv-none-elf/12.2.0/rv32e/ilp32e\libgcc.a(div.o)
                              C:\Users\pablo\AppData\Local\Temp\ccRxtbTd.o (__divsi3)

Discarded input sections

 .debug_line    0x0000000000000000       0xc2 C:\Users\pablo\AppData\Local\Temp\cc4oX4F6.o
 .debug_line_str
                0x0000000000000000       0x54 C:\Users\pablo\AppData\Local\Temp\cc4oX4F6.o
 .debug_info    0x0000000000000000       0x24 C:\Users\pablo\AppData\Local\Temp\cc4oX4F6.o
 .debug_abbrev  0x0000000000000000       0x14 C:\Users\pablo\AppData\Local\Temp\cc4oX4F6.o
 .debug_aranges
                0x0000000000000000       0x20 C:\Users\pablo\AppData\Local\Temp\cc4oX4F6.o
 .debug_str     0x0000000000000000       0x58 C:\Users\pablo\AppData\Local\Temp\cc4oX4F6.o
 .debug_info    0x0000000000000000     0x21ae C:\Users\pablo\AppData\Local\Temp\ccRxtbTd.o
 .debug_abbrev  0x0000000000000000      0x43e C:\Users\pablo\AppData\Local\Temp\ccRxtbTd.o
 .debug_loclists
                0x0000000000000000     0x1481 C:\Users\pablo\AppData\Local\Temp\ccRxtbTd.o
 .debug_aranges
                0x0000000000000000       0x28 C:\Users\pablo\AppData\Local\Temp\ccRxtbTd.o
 .debug_rnglists
                0x0000000000000000       0x7d C:\Users\pablo\AppData\Local\Temp\ccRxtbTd.o
 .debug_line    0x0000000000000000     0x3107 C:\Users\pablo\AppData\Local\Temp\ccRxtbTd.o
 .debug_str     0x0000000000000000      0x5b6 C:\Users\pablo\AppData\Local\Temp\ccRxtbTd.o
 .debug_line_str
                0x0000000000000000      0x128 C:\Users\pablo\AppData\Local\Temp\ccRxtbTd.o
 .debug_frame   0x0000000000000000      0x61c C:\Users\pablo\AppData\Local\Temp\ccRxtbTd.o

Memory Configuration

Name             Origin             Length             Attributes
RAM              0x0000000000000000 0x0000000000004000 xrw
*default*        0x0000000000000000 0xffffffffffffffff

Linker script and memory map


.text           0x0000000000000000     0x2e5f
                0x0000000000000000                . = ALIGN (0x4)
 *(.boot)
 .boot          0x0000000000000000        0x4 C:\Users\pablo\AppData\Local\Temp\cc4oX4F6.o
 *(.text)
 .text          0x0000000000000004       0x68 C:\Users\pablo\AppData\Local\Temp\cc4oX4F6.o
                0x0000000000000060                delay_loop
 .text          0x000000000000006c     0x19f0 C:\Users\pablo\AppData\Local\Temp\ccRxtbTd.o
                0x000000000000006c                irq1_handler
                0x00000000000000d0                irq2_handler
                0x0000000000000120                _putch
                0x00000000000005f8                irq4_handler
                0x00000000000006c8                irq5_handler
                0x0000000000000758                _puts
                0x000000000000078c                _printf
                0x00000000000007c8                _sprintf
                0x0000000000000800                _getch
                0x0000000000000844                haschar
                0x0000000000000860                getMEPC
                0x000000000000086c                irq0_handler
                0x00000000000008dc                _printfBin
                0x0000000000000944                spixfer
                0x0000000000000968                readBME680
                0x00000000000009a8                writeBME680
                0x00000000000009f4                ReadADC
                0x0000000000000a58                irq3_handler
                0x0000000000000be4                printAdcChannels
                0x0000000000000c8c                readAllBMERegs
                0x0000000000000d64                printBMERegs
                0x0000000000000e58                bmeReg
                0x0000000000000e78                startBME680
                0x0000000000000f18                measureBME680
                0x0000000000001310                ReadDust
                0x0000000000001338                ReadGAS
                0x0000000000001364                printCO
                0x0000000000001398                printDust
                0x00000000000013cc                printCh4LPG
                0x0000000000001400                getw
                0x0000000000001454                _memcpy
                0x000000000000147c                _getch1
                0x00000000000014c0                _putch2
                0x00000000000014dc                strchr
                0x0000000000001504                parse_comma_delimited_str
                0x0000000000001574                strncmp
                0x00000000000015a8                getGPSFrame
                0x0000000000001850                test_U1_IRQREAD
                0x0000000000001868                test_U1_READ
                0x0000000000001880                test_U0_WRITE
                0x0000000000001884                timerTest
                0x00000000000018a0                GpoutTest
                0x0000000000001918                GpinTest
                0x00000000000019e8                SPITest
                0x0000000000001a1c                GpinRead
 .text          0x0000000000001a5c       0x24 c:/users/pablo/desktop/softwarefpga/tools/xpack-risc_v/bin/../lib/gcc/riscv-none-elf/12.2.0/rv32e/ilp32e\libgcc.a(muldi3.o)
                0x0000000000001a5c                __mulsi3
 .text          0x0000000000001a80       0xb4 c:/users/pablo/desktop/softwarefpga/tools/xpack-risc_v/bin/../lib/gcc/riscv-none-elf/12.2.0/rv32e/ilp32e\libgcc.a(div.o)
                0x0000000000001a80                __divsi3
                0x0000000000001a88                __udivsi3
                0x0000000000001a88                __hidden___udivsi3
                0x0000000000001ad0                __umodsi3
                0x0000000000001b04                __modsi3
 *(.text*)
 .text.startup  0x0000000000001b34      0x424 C:\Users\pablo\AppData\Local\Temp\ccRxtbTd.o
                0x0000000000001b34                main
 *(.rodata)
 .rodata        0x0000000000001f58       0xe6 C:\Users\pablo\AppData\Local\Temp\ccRxtbTd.o
 *(.rodata*)
 *fill*         0x000000000000203e        0x2 
 .rodata.str1.4
                0x0000000000002040      0xe1f C:\Users\pablo\AppData\Local\Temp\ccRxtbTd.o
                                        0xe23 (size before relaxing)
 *(.srodata)
 *(.srodata*)
                0x0000000000002e5f                _etext = .
                0x0000000000002e5f                _sidata = _etext

.rela.dyn       0x0000000000002e60        0x0
 .rela.text     0x0000000000002e60        0x0 C:\Users\pablo\AppData\Local\Temp\cc4oX4F6.o

.data           0x0000000000002e5f        0x5
                0x0000000000002e60                . = ALIGN (0x4)
 *fill*         0x0000000000002e5f        0x1 
                0x0000000000002e5f                _sdata_values = LOADADDR (.data)
                0x0000000000002e60                _sdata = .
                0x0000000000002e60                _ram_start = .
                0x0000000000002e60                . = ALIGN (0x4)
 *(.data)
 .data          0x0000000000002e60        0x0 C:\Users\pablo\AppData\Local\Temp\cc4oX4F6.o
 .data          0x0000000000002e60        0x0 C:\Users\pablo\AppData\Local\Temp\ccRxtbTd.o
 .data          0x0000000000002e60        0x0 c:/users/pablo/desktop/softwarefpga/tools/xpack-risc_v/bin/../lib/gcc/riscv-none-elf/12.2.0/rv32e/ilp32e\libgcc.a(muldi3.o)
 .data          0x0000000000002e60        0x0 c:/users/pablo/desktop/softwarefpga/tools/xpack-risc_v/bin/../lib/gcc/riscv-none-elf/12.2.0/rv32e/ilp32e\libgcc.a(div.o)
 *(.data*)
 *(.sdata)
 .sdata         0x0000000000002e60        0x3 C:\Users\pablo\AppData\Local\Temp\ccRxtbTd.o
                0x0000000000002e62                GPS_FF
 *(.sdata*)
                0x0000000000002e64                . = ALIGN (0x4)
 *fill*         0x0000000000002e63        0x1 
                0x0000000000002e64                _edata = .

.bss            0x0000000000002e64      0x204
                0x0000000000002e64                . = ALIGN (0x4)
                0x0000000000002e64                _sbss = .
 *(.bss)
 .bss           0x0000000000002e64        0x0 C:\Users\pablo\AppData\Local\Temp\cc4oX4F6.o
 .bss           0x0000000000002e64      0x1f0 C:\Users\pablo\AppData\Local\Temp\ccRxtbTd.o
                0x0000000000002e64                udat0
                0x0000000000002e84                udat1
                0x0000000000002f04                bmeRegs
                0x0000000000003004                GPS_FRAME
 .bss           0x0000000000003054        0x0 c:/users/pablo/desktop/softwarefpga/tools/xpack-risc_v/bin/../lib/gcc/riscv-none-elf/12.2.0/rv32e/ilp32e\libgcc.a(muldi3.o)
 .bss           0x0000000000003054        0x0 c:/users/pablo/desktop/softwarefpga/tools/xpack-risc_v/bin/../lib/gcc/riscv-none-elf/12.2.0/rv32e/ilp32e\libgcc.a(div.o)
 *(.bss*)
 *(.sbss)
 .sbss          0x0000000000003054       0x13 C:\Users\pablo\AppData\Local\Temp\ccRxtbTd.o
                0x0000000000003054                polvoValue
                0x0000000000003058                COValue
                0x000000000000305c                Ch4LPGValue
                0x0000000000003060                volcarOutputGPS
                0x0000000000003061                binaryCount
                0x0000000000003062                clkMode
                0x0000000000003063                wrix1
                0x0000000000003064                rdix1
                0x0000000000003065                wrix0
                0x0000000000003066                rdix0
 *(.sbss*)
 *(COMMON)
                0x0000000000003068                . = ALIGN (0x4)
 *fill*         0x0000000000003067        0x1 
                0x0000000000003068                _ebss = .

.heap           0x0000000000003068        0x0
                0x0000000000003068                . = ALIGN (0x4)
                0x0000000000003068                _heap_start = .
LOAD C:\Users\pablo\AppData\Local\Temp\cc4oX4F6.o
LOAD C:\Users\pablo\AppData\Local\Temp\ccRxtbTd.o
LOAD c:/users/pablo/desktop/softwarefpga/tools/xpack-risc_v/bin/../lib/gcc/riscv-none-elf/12.2.0/rv32e/ilp32e\libgcc.a
OUTPUT(code.elf elf32-littleriscv)

.riscv.attributes
                0x0000000000000000       0x20
 .riscv.attributes
                0x0000000000000000       0x1a C:\Users\pablo\AppData\Local\Temp\cc4oX4F6.o
 .riscv.attributes
                0x000000000000001a       0x20 C:\Users\pablo\AppData\Local\Temp\ccRxtbTd.o
 .riscv.attributes
                0x000000000000003a       0x1a c:/users/pablo/desktop/softwarefpga/tools/xpack-risc_v/bin/../lib/gcc/riscv-none-elf/12.2.0/rv32e/ilp32e\libgcc.a(muldi3.o)
 .riscv.attributes
                0x0000000000000054       0x1a c:/users/pablo/desktop/softwarefpga/tools/xpack-risc_v/bin/../lib/gcc/riscv-none-elf/12.2.0/rv32e/ilp32e\libgcc.a(div.o)

.comment        0x0000000000000000       0x33
 .comment       0x0000000000000000       0x33 C:\Users\pablo\AppData\Local\Temp\ccRxtbTd.o
                                         0x34 (size before relaxing)
